LX51 LINKER/LOCATER V4.41                                                               11/18/2015  10:20:10  PAGE 1


LX51 LINKER/LOCATER V4.41, INVOKED BY:
D:\KEIL\C51\BIN\LX51.EXE .\Obj\main.obj, .\Obj\spi.obj, .\Obj\com.obj, .\Obj\rn8209d.obj, .\Obj\timerhl.obj, .\Obj\adchl
>> .obj, .\Obj\code_switch.obj, .\Obj\msg_protocol.obj, .\Obj\eepromhl.obj, .\Obj\bsp.obj, .\Obj\ADC.obj, .\Obj\EEPROM.o
>> bj, .\Obj\GPIO.obj, .\Obj\timer.obj, .\Obj\USART.obj, .\Obj\PCA.obj TO .\Obj\stc PRINT (.\Obj\stc.map)


CPU MODE:     8051 MODE
MEMORY MODEL: LARGE WITH FLOATING POINT ARITHMETIC


INPUT MODULES INCLUDED:
  .\Obj\main.obj (MAIN)
         COMMENT TYPE 0: C51 V9.00
  .\Obj\spi.obj (SPI)
         COMMENT TYPE 0: C51 V9.00
  .\Obj\com.obj (COM)
         COMMENT TYPE 0: C51 V9.00
  .\Obj\rn8209d.obj (RN8209D)
         COMMENT TYPE 0: C51 V9.00
  .\Obj\timerhl.obj (TIMERHL)
         COMMENT TYPE 0: C51 V9.00
  .\Obj\adchl.obj (ADCHL)
         COMMENT TYPE 0: C51 V9.00
  .\Obj\code_switch.obj (CODE_SWITCH)
         COMMENT TYPE 0: C51 V9.00
  .\Obj\msg_protocol.obj (MSG_PROTOCOL)
         COMMENT TYPE 0: C51 V9.00
  .\Obj\eepromhl.obj (EEPROMHL)
         COMMENT TYPE 0: C51 V9.00
  .\Obj\bsp.obj (BSP)
         COMMENT TYPE 0: C51 V9.00
  .\Obj\ADC.obj (ADC)
         COMMENT TYPE 0: C51 V9.00
  .\Obj\EEPROM.obj (EEPROM)
         COMMENT TYPE 0: C51 V9.00
  .\Obj\GPIO.obj (GPIO)
         COMMENT TYPE 0: C51 V9.00
  .\Obj\timer.obj (TIMER)
         COMMENT TYPE 0: C51 V9.00
  .\Obj\USART.obj (USART)
         COMMENT TYPE 0: C51 V9.00
  .\Obj\PCA.obj (PCA)
         COMMENT TYPE 0: C51 V9.00
  D:\KEIL\C51\LIB\C51FPL.LIB (?C?FPMUL)
         COMMENT TYPE 1: A51 / ASM51 Assembler
  D:\KEIL\C51\LIB\C51FPL.LIB (?C?FPDIV)
         COMMENT TYPE 1: A51 / ASM51 Assembler
  D:\KEIL\C51\LIB\C51FPL.LIB (?C?FPCMP)
         COMMENT TYPE 1: A51 / ASM51 Assembler
  D:\KEIL\C51\LIB\C51FPL.LIB (?C?FCAST)
         COMMENT TYPE 1: A51 / ASM51 Assembler
  D:\KEIL\C51\LIB\C51FPL.LIB (?C?CASTF)
         COMMENT TYPE 1: A51 / ASM51 Assembler
  D:\KEIL\C51\LIB\C51FPL.LIB (?C?FPGETOPN)
         COMMENT TYPE 1: A51 / ASM51 Assembler
  D:\KEIL\C51\LIB\C51L.LIB (?C_STARTUP)
         COMMENT TYPE 1: A51 / ASM51 Assembler
  D:\KEIL\C51\LIB\C51L.LIB (?C?COPY)
         COMMENT TYPE 1: A51 / ASM51 Assembler
  D:\KEIL\C51\LIB\C51L.LIB (?C?CLDPTR)
         COMMENT TYPE 1: A51 / ASM51 Assembler
  D:\KEIL\C51\LIB\C51L.LIB (?C?CLDOPTR)
         COMMENT TYPE 1: A51 / ASM51 Assembler
  D:\KEIL\C51\LIB\C51L.LIB (?C?CSTPTR)
         COMMENT TYPE 1: A51 / ASM51 Assembler
  D:\KEIL\C51\LIB\C51L.LIB (?C?CSTOPTR)
LX51 LINKER/LOCATER V4.41                                                             11/18/2015  10:20:10  PAGE 2


         COMMENT TYPE 1: A51 / ASM51 Assembler
  D:\KEIL\C51\LIB\C51L.LIB (?C?UIDIV)
         COMMENT TYPE 1: A51 / ASM51 Assembler
  D:\KEIL\C51\LIB\C51L.LIB (?C?IILDX)
         COMMENT TYPE 1: A51 / ASM51 Assembler
  D:\KEIL\C51\LIB\C51L.LIB (?C?ILDIX)
         COMMENT TYPE 1: A51 / ASM51 Assembler
  D:\KEIL\C51\LIB\C51L.LIB (?C?ILDOPTR)
         COMMENT TYPE 1: A51 / ASM51 Assembler
  D:\KEIL\C51\LIB\C51L.LIB (?C?ISTOPTR)
         COMMENT TYPE 1: A51 / ASM51 Assembler
  D:\KEIL\C51\LIB\C51L.LIB (?C?LMUL)
         COMMENT TYPE 1: A51 / ASM51 Assembler
  D:\KEIL\C51\LIB\C51L.LIB (?C?ULDIV)
         COMMENT TYPE 1: A51 / ASM51 Assembler
  D:\KEIL\C51\LIB\C51L.LIB (?C?LNEG)
         COMMENT TYPE 1: A51 / ASM51 Assembler
  D:\KEIL\C51\LIB\C51L.LIB (?C?ULCMP)
         COMMENT TYPE 1: A51 / ASM51 Assembler
  D:\KEIL\C51\LIB\C51L.LIB (?C?ULSHR)
         COMMENT TYPE 1: A51 / ASM51 Assembler
  D:\KEIL\C51\LIB\C51L.LIB (?C?LSHL)
         COMMENT TYPE 1: A51 / ASM51 Assembler
  D:\KEIL\C51\LIB\C51L.LIB (?C?LLDOPTR0)
         COMMENT TYPE 1: A51 / ASM51 Assembler
  D:\KEIL\C51\LIB\C51L.LIB (?C?LLDIXDATA)
         COMMENT TYPE 1: A51 / ASM51 Assembler
  D:\KEIL\C51\LIB\C51L.LIB (?C?LSTXDATA)
         COMMENT TYPE 1: A51 / ASM51 Assembler
  D:\KEIL\C51\LIB\C51L.LIB (?C?LSTKXDATA)
         COMMENT TYPE 1: A51 / ASM51 Assembler
  D:\KEIL\C51\LIB\C51L.LIB (?C?ICASE)
         COMMENT TYPE 1: A51 / ASM51 Assembler
  D:\KEIL\C51\LIB\C51L.LIB (?C?MEMSET)
         COMMENT TYPE 1: A51 / ASM51 Assembler
  D:\KEIL\C51\LIB\C51L.LIB (?C_INIT)
         COMMENT TYPE 1: A51 / ASM51 Assembler
  D:\KEIL\C51\LIB\C51L.LIB (?C?LLDIDATA0)
         COMMENT TYPE 1: A51 / ASM51 Assembler
  D:\KEIL\C51\LIB\C51L.LIB (?C?LLDXDATA0)
         COMMENT TYPE 1: A51 / ASM51 Assembler
  D:\KEIL\C51\LIB\C51L.LIB (?C?LLDPDATA0)
         COMMENT TYPE 1: A51 / ASM51 Assembler
  D:\KEIL\C51\LIB\C51L.LIB (?C?LLDCODE0)
         COMMENT TYPE 1: A51 / ASM51 Assembler


ACTIVE MEMORY CLASSES OF MODULE:  .\Obj\stc (MAIN)

BASE        START       END         USED      MEMORY CLASS
==========================================================
C:000000H   C:000000H   C:00FFFFH   003B69H   CODE
X:000000H   X:000000H   X:00FFFFH   0005B7H   XDATA
C:000000H   C:000000H   C:00FFFFH   00013EH   CONST
I:000000H   I:000000H   I:00007FH   00000FH   DATA
I:000020H.0 I:000020H.0 I:00002FH.7 000000H.3 BIT
I:000000H   I:000000H   I:0000FFH   000001H   IDATA


MEMORY MAP OF MODULE:  .\Obj\stc (MAIN)


START     STOP      LENGTH    ALIGN  RELOC    MEMORY CLASS   SEGMENT NAME
=========================================================================

LX51 LINKER/LOCATER V4.41                                                             11/18/2015  10:20:10  PAGE 3


* * * * * * * * * * *   D A T A   M E M O R Y   * * * * * * * * * * * * *
000000H   000007H   000008H   ---    AT..     DATA           "REG BANK 0"
000008H   00000BH   000004H   BYTE   UNIT     DATA           ?DT?_SPI_SEND_BYTE1?SPI
00000CH   00000EH   000003H   BYTE   UNIT     DATA           _DATA_GROUP_
00000FH.0 00001FH.7 000011H.0 ---    ---      **GAP**
000020H.0 000020H.2 000000H.3 BIT    UNIT     BIT            ?BI?PCA
000020H.3 000020H   000000H.5 ---    ---      **GAP**
000021H   000021H   000001H   BYTE   UNIT     IDATA          ?STACK

* * * * * * * * * * *   C O D E   M E M O R Y   * * * * * * * * * * * * *
000000H   000002H   000003H   ---    OFFS..   CODE           ?CO??C_STARTUP?0
000003H   000008H   000006H   BYTE   UNIT     CODE           ?PR?TIME_INIT?TIMERHL
000009H   000009H   000001H   BYTE   UNIT     CODE           ?PR?TIMER_MS?TIMERHL
00000AH   00000AH   000001H   BYTE   UNIT     CODE           ?PR?TIMER_MIN?TIMERHL
00000BH   00000DH   000003H   BYTE   OFFS..   CODE           ?TIMERHL?0000B
00000EH   000019H   00000CH   BYTE   UNIT     CODE           ?PR?_ADC_POWERCONTROL?ADC
00001AH   00001AH   000001H   BYTE   UNIT     CODE           ?PR?TIMER_HOUR?TIMERHL
00001BH   00001DH   000003H   BYTE   OFFS..   CODE           ?TIMER?0001B
00001EH   000021H   000004H   BYTE   UNIT     CODE           ?PR?WATCHDOG_CONFIG?BSP
000022H   000022H   000001H   BYTE   UNIT     CODE           ?PR?TIMER1_INT?TIMER
000023H   000025H   000003H   BYTE   OFFS..   CODE           ?USART?00023
000026H   000029H   000004H   BYTE   UNIT     CODE           ?PR?WATCHDOG_CLEAR?BSP
00002AH   00002AH   000001H   ---    ---      **GAP**
00002BH   00002DH   000003H   BYTE   OFFS..   CODE           ?ADC?0002B
00002EH   000037H   00000AH   BYTE   UNIT     CODE           ?PR?_QUEUE_INIT?COM
000038H   00003AH   000003H   BYTE   UNIT     CODE           ?PR?SOFT_RESET?COM
00003BH   00003DH   000003H   BYTE   OFFS..   CODE           ?PCA?0003B
00003EH   000041H   000004H   BYTE   UNIT     CODE           ?PR?SPI_INIT?BSP
000042H   000042H   000001H   ---    ---      **GAP**
000043H   000045H   000003H   BYTE   OFFS..   CODE           ?USART?00043
000046H   000061H   00001CH   BYTE   UNIT     CODE           ?PR?GET_SWITCH_1_VAL?CODE_SWITCH
000062H   000062H   000001H   ---    ---      **GAP**
000063H   000065H   000003H   BYTE   OFFS..   CODE           ?TIMER?00063
000066H   000820H   0007BBH   BYTE   UNIT     CODE           ?C?LIB_CODE
000821H   000B95H   000375H   BYTE   UNIT     CODE           ?PR?_USART_CONFIGURATION?USART
000B96H   000EBBH   000326H   BYTE   UNIT     CODE           ?PR?_GET_ALARM_MSG?MSG_PROTOCOL
000EBCH   0011A2H   0002E7H   BYTE   UNIT     CODE           ?PR?_GET_LAMP_ON_ALARM_STATUS?ADCHL
0011A3H   001393H   0001F1H   BYTE   UNIT     CODE           ?PR?_FRIST_LAMP_ON_HANDER?ADCHL
001394H   001574H   0001E1H   BYTE   UNIT     CODE           ?PR?TIMER_SEC?TIMERHL
001575H   001738H   0001C4H   BYTE   UNIT     CODE           ?PR?_GPIO_INILIZE?GPIO
001739H   0018EFH   0001B7H   BYTE   UNIT     CODE           ?PR?_FRAME_ANLAYZE?MSG_PROTOCOL
0018F0H   001A8EH   00019FH   BYTE   UNIT     CODE           ?PR?_PCA_INIT?PCA
001A8FH   001C29H   00019BH   BYTE   UNIT     CODE           ?PR?_TIMER_INILIZE?TIMER
001C2AH   001DBEH   000195H   BYTE   UNIT     CODE           ?PR?_APP?ADCHL
001DBFH   001F21H   000163H   BYTE   UNIT     CODE           ?PR?_UART1_RX_DATA?USART
001F22H   00207CH   00015BH   BYTE   UNIT     CODE           ?PR?MAIN?MAIN
00207DH   0021D4H   000158H   BYTE   UNIT     CODE           ?PR?_UART2_RX_DATA?USART
0021D5H   0022F5H   000121H   BYTE   UNIT     CODE           ?C_INITSEG
0022F6H   002410H   00011BH   BYTE   UNIT     CODE           ?PR?_UNUSUAL_CURR?ADCHL
002411H   00251EH   00010EH   BYTE   UNIT     CODE           ?PR?TIMER0_INT?TIMERHL
00251FH   00261CH   0000FEH   BYTE   UNIT     CODE           ?PR?_GET_LAMP_OFF_ALARM_STATUS?ADCHL
00261DH   002719H   0000FDH   BYTE   UNIT     CODE           ?PR?_GET_LAMP_SWITCH_ALARM_STATUS?ADCHL
00271AH   00280AH   0000F1H   BYTE   UNIT     CODE           ?PR?_WRITE_LAMP_WORK_CURR_BASE?ADCHL
00280BH   0028E1H   0000D7H   BYTE   UNIT     CODE           ?PR?_EE1_COPY_TO_EE2?EEPROMHL
0028E2H   0029ABH   0000CAH   BYTE   UNIT     CODE           ?PR?UART2_INT?USART
0029ACH   002A6FH   0000C4H   BYTE   UNIT     CODE           ?PR?UART1_INT?USART
002A70H   002B2CH   0000BDH   BYTE   UNIT     CODE           ?PR?_SET_ALARM_STATUS?ADCHL
002B2DH   002BDAH   0000AEH   BYTE   UNIT     CODE           ?PR?PROTOCOL_ACTION?MSG_PROTOCOL
002BDBH   002C88H   0000AEH   BYTE   UNIT     CODE           ?PR?_PWMN_UPDATE?PCA
002C89H   002D34H   0000ACH   BYTE   UNIT     CODE           ?PR?_SET_PORT_VAL?BSP
002D35H   002DDEH   0000AAH   BYTE   UNIT     CODE           ?PR?_GET_ADC_VAL?ADCHL
002DDFH   002E81H   0000A3H   BYTE   UNIT     CODE           ?PR?PCA_HANDLER?PCA
002E82H   002F19H   000098H   BYTE   UNIT     CODE           ?PR?_RN8209_WRITE_DATA?RN8209D
002F1AH   002FA6H   00008DH   BYTE   UNIT     CODE           ?PR?_RN8209_READ_DATA?RN8209D
002FA7H   003032H   00008CH   BYTE   UNIT     CODE           ?C_C51STARTUP
LX51 LINKER/LOCATER V4.41                                                             11/18/2015  10:20:10  PAGE 4


003033H   0030BDH   00008BH   BYTE   UNIT     CODE           ?PR?RN8209_GET_CURR1?RN8209D
0030BEH   00313AH   00007DH   BYTE   UNIT     CODE           ?PR?_EE1_WRITE_DATA?EEPROMHL
00313BH   0031B7H   00007DH   BYTE   UNIT     CODE           ?PR?_EE2_WRITE_DATA?EEPROMHL
0031B8H   003234H   00007DH   BYTE   UNIT     CODE           ?PR?_EE2_READ_DATA?EEPROMHL
003235H   0032B0H   00007CH   BYTE   UNIT     CODE           ?PR?_QUEUE_EN?COM
0032B1H   003326H   000076H   BYTE   UNIT     CODE           ?PR?_READ_LAMP_WORK_CURR_BASE?ADCHL
003327H   00339AH   000074H   BYTE   UNIT     CODE           ?PR?_QUEUE_DE?COM
00339BH   003406H   00006CH   BYTE   UNIT     CODE           ?PR?RN8209_GET_CURR?RN8209D
003407H   003470H   00006AH   BYTE   UNIT     CODE           ?PR?_QUEUE_TRAVERSE?COM
003471H   0034D8H   000068H   BYTE   UNIT     CODE           ?PR?GET_LAMP_WORK_STATUS?ADCHL
0034D9H   003536H   00005EH   BYTE   UNIT     CODE           ?PR?_CHECK_SUM?COM
003537H   003594H   00005EH   BYTE   UNIT     CODE           ?PR?_GET_ADC10BITRESULT?ADC
003595H   0035E7H   000053H   BYTE   UNIT     CODE           ?PR?_ADC_INILIZE?ADC
0035E8H   003637H   000050H   BYTE   UNIT     CODE           ?PR?RN8209_GET_VOL?RN8209D
003638H   003686H   00004FH   BYTE   UNIT     CODE           ?PR?_UART2_TX_DATA?USART
003687H   0036CBH   000045H   BYTE   UNIT     CODE           ?PR?SPI_READ_BYTE?SPI
0036CCH   003710H   000045H   BYTE   UNIT     CODE           ?PR?_DELAY_1MS?COM
003711H   003751H   000041H   BYTE   UNIT     CODE           ?PR?_CHECK_IS_FRIST_LAMP_ON?ADCHL
003752H   003790H   00003FH   BYTE   UNIT     CODE           ?PR?_EEPROM_READ_N?EEPROM
003791H   0037CFH   00003FH   BYTE   UNIT     CODE           ?PR?_EEPROM_WRITE_N?EEPROM
0037D0H   00380AH   00003BH   BYTE   UNIT     CODE           ?PR?_TO_BIN2?COM
00380BH   003840H   000036H   BYTE   UNIT     CODE           ?PR?_SET_CHANNEL?ADCHL
003841H   003875H   000035H   BYTE   UNIT     CODE           ?PR?PWM2_CONFIG?BSP
003876H   0038A9H   000034H   BYTE   UNIT     CODE           ?PR?_QUEUE_IS_FULL?COM
0038AAH   0038DDH   000034H   BYTE   UNIT     CODE           ?PR?_TO_BIN?COM
0038DEH   00390DH   000030H   BYTE   UNIT     CODE           ?PR?UART1_CONFIG?BSP
00390EH   00393DH   000030H   BYTE   UNIT     CODE           ?PR?UART2_CONFIG?BSP
00393EH   00396AH   00002DH   BYTE   UNIT     CODE           ?PR?_UART1_TX_DATA?USART
00396BH   003995H   00002BH   BYTE   UNIT     CODE           ?PR?_GET_PORT_VAL?BSP
003996H   0039BEH   000029H   BYTE   UNIT     CODE           ?PR?_SPI_WRITE_BYTE?SPI
0039BFH   0039E6H   000028H   BYTE   UNIT     CODE           ?PR?_TX2_WRITE2BUFF?USART
0039E7H   003A0DH   000027H   BYTE   UNIT     CODE           ?PR?_TX1_WRITE2BUFF?USART
003A0EH   003A32H   000025H   BYTE   UNIT     CODE           ?PR?_AD_TO_VOL?COM
003A33H   003A55H   000023H   BYTE   UNIT     CODE           ?PR?ADC_CONFIG?BSP
003A56H   003A75H   000020H   BYTE   UNIT     CODE           ?PR?_EEPROM_SECTORERASE?EEPROM
003A76H   003A91H   00001CH   BYTE   UNIT     CODE           ?PR?GET_SWITCH_2_VAL?CODE_SWITCH
003A92H   003AAAH   000019H   BYTE   UNIT     CODE           ?PR?RN8209_INIT?RN8209D
003AABH   003ABFH   000015H   BYTE   UNIT     CODE           ?PR?_DELAY?COM
003AC0H   003AD4H   000015H   BYTE   UNIT     CODE           ?PR?GPIO_CONFIG?BSP
003AD5H   003AE9H   000015H   BYTE   UNIT     CODE           ?PR?BSP_INIT?BSP
003AEAH   003AFCH   000013H   BYTE   UNIT     CODE           ?PR?_QUEUE_IS_EMPTY?COM
003AFDH   003B0FH   000013H   BYTE   UNIT     CODE           ?PR?TIMER0_CONFIG?BSP
003B10H   003B22H   000013H   BYTE   UNIT     CODE           ?PR?_PRINTSTRING1?USART
003B23H   003B35H   000013H   BYTE   UNIT     CODE           ?PR?_PRINTSTRING2?USART
003B36H   003B46H   000011H   BYTE   UNIT     CODE           ?PR?_SPI_SEND_BYTE1?SPI
003B47H   003B54H   00000EH   BYTE   UNIT     CODE           ?PR?DISABLEEEPROM?EEPROM
003B55H   003B5EH   00000AH   BYTE   UNIT     CODE           ?PR?GET_APP_WROK_STATUS?CODE_SWITCH
003B5FH   003B62H   000004H   BYTE   UNIT     CODE           ?PR?ADC_INT?ADC
003B63H   003B65H   000003H   BYTE   UNIT     CODE           ?PR?ALL_IRQ_DISABLE?BSP
003B66H   003B68H   000003H   BYTE   UNIT     CODE           ?PR?ALL_IRQ_ENABLE?BSP
003B69H   003B6BH   000003H   BYTE   UNIT     CODE           ?PR?TIMER2_INT?TIMER
003B6CH   003BE1H   000076H   BYTE   UNIT     CONST          ?CO?MSG_PROTOCOL
003BE2H   003C45H   000064H   BYTE   UNIT     CONST          ?CO?USART
003C46H   003C8DH   000048H   BYTE   UNIT     CONST          ?CO?ADCHL
003C8EH   003C9DH   000010H   BYTE   UNIT     CONST          ?CO?RN8209D
003C9EH   003CA4H   000007H   BYTE   UNIT     CONST          ?CO?MAIN
003CA5H   003CA9H   000005H   BYTE   UNIT     CONST          ?CO?EEPROMHL

* * * * * * * * * * *  X D A T A   M E M O R Y  * * * * * * * * * * * * *
000000H   00020FH   000210H   BYTE   UNIT     XDATA          ?XD?USART
000210H   000389H   00017AH   BYTE   UNIT     XDATA          _XDATA_GROUP_
00038AH   000405H   00007CH   BYTE   UNIT     XDATA          ?XD?_UART1_RX_DATA?USART
000406H   000472H   00006DH   BYTE   UNIT     XDATA          ?XD?TIMERHL
000473H   0004DFH   00006DH   BYTE   UNIT     XDATA          ?XD?ADCHL
0004E0H   000519H   00003AH   BYTE   UNIT     XDATA          ?XD?_FRIST_LAMP_ON_HANDER?ADCHL
LX51 LINKER/LOCATER V4.41                                                             11/18/2015  10:20:10  PAGE 5


00051AH   000536H   00001DH   BYTE   UNIT     XDATA          ?XD?_GET_ADC_VAL?ADCHL
000537H   00054BH   000015H   BYTE   UNIT     XDATA          ?XD?PCA
00054CH   00055CH   000011H   BYTE   UNIT     XDATA          ?XD?_WRITE_LAMP_WORK_CURR_BASE?ADCHL
00055DH   00056AH   00000EH   BYTE   UNIT     XDATA          ?XD?_GET_LAMP_SWITCH_ALARM_STATUS?ADCHL
00056BH   000573H   000009H   BYTE   UNIT     XDATA          ?XD?RN8209_GET_CURR1?RN8209D
000574H   00057CH   000009H   BYTE   UNIT     XDATA          ?XD?_UNUSUAL_CURR?ADCHL
00057DH   000584H   000008H   BYTE   UNIT     XDATA          ?XD?_RN8209_WRITE_DATA?RN8209D
000585H   00058BH   000007H   BYTE   UNIT     XDATA          ?XD?_EEPROM_WRITE_N?EEPROM
00058CH   000591H   000006H   BYTE   UNIT     XDATA          ?XD?_QUEUE_DE?COM
000592H   000597H   000006H   BYTE   UNIT     XDATA          ?XD?_QUEUE_TRAVERSE?COM
000598H   00059DH   000006H   BYTE   UNIT     XDATA          ?XD?_EE1_COPY_TO_EE2?EEPROMHL
00059EH   0005A1H   000004H   BYTE   UNIT     XDATA          ?XD?_QUEUE_EN?COM
0005A2H   0005A5H   000004H   BYTE   UNIT     XDATA          ?XD?_READ_LAMP_WORK_CURR_BASE?ADCHL
0005A6H   0005A8H   000003H   BYTE   UNIT     XDATA          ?XD?_QUEUE_IS_FULL?COM
0005A9H   0005ABH   000003H   BYTE   UNIT     XDATA          ?XD?_EE1_WRITE_DATA?EEPROMHL
0005ACH   0005AEH   000003H   BYTE   UNIT     XDATA          ?XD?_EE2_WRITE_DATA?EEPROMHL
0005AFH   0005B1H   000003H   BYTE   UNIT     XDATA          ?XD?_UART1_TX_DATA?USART
0005B2H   0005B3H   000002H   BYTE   UNIT     XDATA          ?XD?_TO_BIN2?COM
0005B4H   0005B4H   000001H   BYTE   UNIT     XDATA          ?XD?MAIN
0005B5H   0005B5H   000001H   BYTE   UNIT     XDATA          ?XD?_SPI_SEND_BYTE1?SPI
0005B6H   0005B6H   000001H   BYTE   UNIT     XDATA          ?XD?TIME_INIT?TIMERHL



OVERLAY MAP OF MODULE:   .\Obj\stc (MAIN)


FUNCTION/MODULE                          DATA_GROUP   XDATA_GROUP
--> CALLED FUNCTION/MODULE               START  STOP  START  STOP
=================================================================
TIMER0_INT/TIMERHL                       ----- -----  0210H 0211H
  +--> ?PR?TIMER_MS?TIMERHL
  +--> ?PR?TIMER_SEC?TIMERHL
  +--> ?PR?TIMER_MIN?TIMERHL
  +--> ?PR?TIMER_HOUR?TIMERHL

TIMER_MS/TIMERHL                         ----- -----  ----- -----

TIMER_SEC/TIMERHL                        ----- -----  0212H 0212H

TIMER_MIN/TIMERHL                        ----- -----  ----- -----

TIMER_HOUR/TIMERHL                       ----- -----  ----- -----

*** NEW ROOT ***************************

ADC_INT/ADC                              ----- -----  ----- -----

*** NEW ROOT ***************************

TIMER1_INT/TIMER                         ----- -----  ----- -----

*** NEW ROOT ***************************

TIMER2_INT/TIMER                         ----- -----  ----- -----

*** NEW ROOT ***************************

UART1_INT/USART                          ----- -----  ----- -----

*** NEW ROOT ***************************

UART2_INT/USART                          ----- -----  ----- -----

*** NEW ROOT ***************************
LX51 LINKER/LOCATER V4.41                                                             11/18/2015  10:20:10  PAGE 6



PCA_HANDLER/PCA                          ----- -----  ----- -----

*** NEW ROOT ***************************

?C_C51STARTUP                            ----- -----  ----- -----
  +--> ?PR?MAIN?MAIN
  +--> ?C_INITSEG

MAIN/MAIN                                ----- -----  0213H 0222H
  +--> ?CO?MAIN
  +--> ?PR?BSP_INIT?BSP
  +--> ?PR?ALL_IRQ_ENABLE?BSP
  +--> ?PR?RN8209_INIT?RN8209D
  +--> ?PR?GET_APP_WROK_STATUS?CODE_SWITCH
  +--> ?PR?_TX1_WRITE2BUFF?USART
  +--> ?PR?PWM2_CONFIG?BSP
  +--> ?PR?_PWMN_UPDATE?PCA
  +--> ?PR?_SET_PORT_VAL?BSP
  +--> ?PR?WATCHDOG_CLEAR?BSP
  +--> ?PR?_SET_CHANNEL?ADCHL
  +--> ?PR?_APP?ADCHL
  +--> ?PR?PROTOCOL_ACTION?MSG_PROTOCOL
  +--> ?PR?_SET_ALARM_STATUS?ADCHL
  +--> ?PR?_GET_PORT_VAL?BSP

?CO?MAIN                                 ----- -----  ----- -----

BSP_INIT/BSP                             ----- -----  ----- -----
  +--> ?PR?GPIO_CONFIG?BSP
  +--> ?PR?WATCHDOG_CONFIG?BSP
  +--> ?PR?UART1_CONFIG?BSP
  +--> ?PR?UART2_CONFIG?BSP
  +--> ?PR?SPI_INIT?BSP
  +--> ?PR?ADC_CONFIG?BSP
  +--> ?PR?TIMER0_CONFIG?BSP

GPIO_CONFIG/BSP                          ----- -----  0223H 0224H
  +--> ?PR?_GPIO_INILIZE?GPIO

_GPIO_INILIZE/GPIO                       ----- -----  ----- -----

WATCHDOG_CONFIG/BSP                      ----- -----  ----- -----

UART1_CONFIG/BSP                         ----- -----  0223H 022FH
  +--> ?PR?_USART_CONFIGURATION?USART

_USART_CONFIGURATION/USART               ----- -----  0230H 0238H

UART2_CONFIG/BSP                         ----- -----  0223H 022FH
  +--> ?PR?_USART_CONFIGURATION?USART

SPI_INIT/BSP                             ----- -----  ----- -----

ADC_CONFIG/BSP                           ----- -----  0223H 0228H
  +--> ?PR?_ADC_INILIZE?ADC
  +--> ?PR?_ADC_POWERCONTROL?ADC

_ADC_INILIZE/ADC                         ----- -----  ----- -----

_ADC_POWERCONTROL/ADC                    ----- -----  ----- -----

TIMER0_CONFIG/BSP                        ----- -----  ----- -----

ALL_IRQ_ENABLE/BSP                       ----- -----  ----- -----
LX51 LINKER/LOCATER V4.41                                                             11/18/2015  10:20:10  PAGE 7



RN8209_INIT/RN8209D                      ----- -----  ----- -----
  +--> ?PR?_SPI_WRITE_BYTE?SPI

_SPI_WRITE_BYTE/SPI                      000CH 000EH  023EH 023FH

GET_APP_WROK_STATUS/CODE_SWITCH          ----- -----  ----- -----
  +--> ?PR?_GET_PORT_VAL?BSP

_GET_PORT_VAL/BSP                        ----- -----  ----- -----

_TX1_WRITE2BUFF/USART                    ----- -----  ----- -----

PWM2_CONFIG/BSP                          ----- -----  0223H 022AH
  +--> ?PR?_PCA_INIT?PCA

_PCA_INIT/PCA                            ----- -----  022BH 022DH

_PWMN_UPDATE/PCA                         ----- -----  ----- -----

_SET_PORT_VAL/BSP                        ----- -----  ----- -----

WATCHDOG_CLEAR/BSP                       ----- -----  ----- -----

_SET_CHANNEL/ADCHL                       ----- -----  ----- -----
  +--> ?PR?_SET_PORT_VAL?BSP

_APP/ADCHL                               ----- -----  0223H 0223H
  +--> ?PR?_CHECK_IS_FRIST_LAMP_ON?ADCHL
  +--> ?PR?GET_LAMP_WORK_STATUS?ADCHL
  +--> ?PR?_TX1_WRITE2BUFF?USART
  +--> ?PR?_GET_LAMP_ON_ALARM_STATUS?ADCHL
  +--> ?PR?_GET_LAMP_OFF_ALARM_STATUS?ADCHL

_CHECK_IS_FRIST_LAMP_ON/ADCHL            ----- -----  0224H 0227H
  +--> ?CO?ADCHL
  +--> ?PR?_EE2_READ_DATA?EEPROMHL

?CO?ADCHL                                ----- -----  ----- -----

_EE2_READ_DATA/EEPROMHL                  ----- -----  0228H 022AH
  +--> ?PR?_EEPROM_READ_N?EEPROM

_EEPROM_READ_N/EEPROM                    ----- -----  022BH 0231H
  +--> ?PR?DISABLEEEPROM?EEPROM

DISABLEEEPROM/EEPROM                     ----- -----  ----- -----

GET_LAMP_WORK_STATUS/ADCHL               ----- -----  0224H 0228H
  +--> ?PR?RN8209_GET_VOL?RN8209D
  +--> ?PR?_DELAY_1MS?COM

RN8209_GET_VOL/RN8209D                   ----- -----  0229H 022CH
  +--> ?CO?RN8209D
  +--> ?PR?_RN8209_READ_DATA?RN8209D

?CO?RN8209D                              ----- -----  ----- -----

_RN8209_READ_DATA/RN8209D                ----- -----  0233H 023DH
  +--> ?CO?RN8209D
  +--> ?PR?_SPI_WRITE_BYTE?SPI
  +--> ?PR?SPI_READ_BYTE?SPI

SPI_READ_BYTE/SPI                        ----- -----  023EH 023FH
  +--> ?PR?_DELAY?COM
LX51 LINKER/LOCATER V4.41                                                             11/18/2015  10:20:10  PAGE 8



_DELAY/COM                               ----- -----  0240H 0243H

_DELAY_1MS/COM                           ----- -----  030DH 0310H

_GET_LAMP_ON_ALARM_STATUS/ADCHL          ----- -----  0224H 022EH
  +--> ?PR?GET_SWITCH_2_VAL?CODE_SWITCH
  +--> ?PR?_TX1_WRITE2BUFF?USART
  +--> ?PR?RN8209_GET_CURR?RN8209D

GET_SWITCH_2_VAL/CODE_SWITCH             ----- -----  ----- -----
  +--> ?PR?_GET_PORT_VAL?BSP

RN8209_GET_CURR/RN8209D                  ----- -----  022FH 0232H
  +--> ?CO?RN8209D
  +--> ?PR?_RN8209_READ_DATA?RN8209D

_GET_LAMP_OFF_ALARM_STATUS/ADCHL         ----- -----  0224H 022CH
  +--> ?PR?_GET_ADC10BITRESULT?ADC
  +--> ?PR?_AD_TO_VOL?COM

_GET_ADC10BITRESULT/ADC                  ----- -----  ----- -----

_AD_TO_VOL/COM                           ----- -----  ----- -----

PROTOCOL_ACTION/MSG_PROTOCOL             ----- -----  0223H 0308H
  +--> ?CO?MSG_PROTOCOL
  +--> ?PR?_UART2_RX_DATA?USART
  +--> ?PR?_FRAME_ANLAYZE?MSG_PROTOCOL
  +--> ?PR?_GET_ALARM_MSG?MSG_PROTOCOL
  +--> ?PR?_UART2_TX_DATA?USART

?CO?MSG_PROTOCOL                         ----- -----  ----- -----

_UART2_RX_DATA/USART                     ----- -----  0309H 0384H
  +--> ?CO?USART
  +--> ?PR?_CHECK_SUM?COM

?CO?USART                                ----- -----  ----- -----

_CHECK_SUM/COM                           ----- -----  0385H 0389H

_FRAME_ANLAYZE/MSG_PROTOCOL              ----- -----  0309H 0311H

_GET_ALARM_MSG/MSG_PROTOCOL              ----- -----  0309H 032FH
  +--> ?CO?MSG_PROTOCOL
  +--> ?PR?_TO_BIN?COM
  +--> ?PR?_CHECK_SUM?COM

_TO_BIN/COM                              ----- -----  0330H 0332H

_UART2_TX_DATA/USART                     ----- -----  0309H 030CH
  +--> ?PR?_SET_PORT_VAL?BSP
  +--> ?PR?_TX2_WRITE2BUFF?USART
  +--> ?PR?_DELAY_1MS?COM

_TX2_WRITE2BUFF/USART                    ----- -----  ----- -----

_SET_ALARM_STATUS/ADCHL                  ----- -----  0223H 0225H
  +--> ?PR?_SET_PORT_VAL?BSP

?C_INITSEG                               ----- -----  ----- -----



LX51 LINKER/LOCATER V4.41                                                             11/18/2015  10:20:10  PAGE 9


PUBLIC SYMBOLS OF MODULE:  .\Obj\stc (MAIN)


      VALUE       CLASS    TYPE      PUBLIC SYMBOL NAME
      =================================================
      0200022BH   XDATA    BYTE      ?_EEPROM_read_n?BYTE
      02000585H   XDATA    BYTE      ?_EEPROM_write_n?BYTE
      02000309H   XDATA    BYTE      ?_frame_anlayze?BYTE
      02000309H   XDATA    BYTE      ?_get_alarm_msg?BYTE
      0200058CH   XDATA    BYTE      ?_queue_de?BYTE
      02000592H   XDATA    BYTE      ?_queue_traverse?BYTE
      02000233H   XDATA    BYTE      ?_rn8209_read_data?BYTE
      0200057DH   XDATA    BYTE      ?_rn8209_write_data?BYTE
      010002B7H   CODE     ---       ?C?CASTF
      01000447H   CODE     ---       ?C?CLDOPTR
      0100042EH   CODE     ---       ?C?CLDPTR
      00000000H   NUMBER   ---       ?C?CODESEG
      01000408H   CODE     ---       ?C?COPY
      01000486H   CODE     ---       ?C?CSTOPTR
      01000474H   CODE     ---       ?C?CSTPTR
      01000283H   CODE     ---       ?C?FCASTC
      0100027EH   CODE     ---       ?C?FCASTI
      01000279H   CODE     ---       ?C?FCASTL
      0100020EH   CODE     ---       ?C?FPCMP
      0100020CH   CODE     ---       ?C?FPCMP3
      0100016FH   CODE     ---       ?C?FPDIV
      010002EEH   CODE     ---       ?C?FPGETOPN2
      01000066H   CODE     ---       ?C?FPMUL
      01000323H   CODE     ---       ?C?FPNANRESULT
      0100032DH   CODE     ---       ?C?FPOVERFLOW
      01000305H   CODE     ---       ?C?FPRESULT
      01000319H   CODE     ---       ?C?FPRESULT2
      0100032AH   CODE     ---       ?C?FPUNDERFLOW
      01000792H   CODE     ---       ?C?ICASE
      010004FDH   CODE     ---       ?C?IILDX
      01000513H   CODE     ---       ?C?ILDIX
      01000529H   CODE     ---       ?C?ILDOPTR
      01000561H   CODE     ---       ?C?ISTOPTR
      01000811H   CODE     ---       ?C?LLDCODE0
      010007EBH   CODE     ---       ?C?LLDIDATA0
      01000729H   CODE     ---       ?C?LLDIXDATA
      01000720H   CODE     ---       ?C?LLDIXDATA1
      01000722H   CODE     ---       ?C?LLDIXDATA8
      010006F0H   CODE     ---       ?C?LLDOPTR0
      01000804H   CODE     ---       ?C?LLDPDATA0
      010007F8H   CODE     ---       ?C?LLDXDATA0
      0100058EH   CODE     ---       ?C?LMUL
      010006ABH   CODE     ---       ?C?LNEG
      010006DDH   CODE     ---       ?C?LSHL
      01000761H   CODE     ---       ?C?LSTKXDATA
      01000755H   CODE     ---       ?C?LSTXDATA
      010007BFH   CODE     ---       ?C?MEMSET
      010004A8H   CODE     ---       ?C?UIDIV
      010006B9H   CODE     ---       ?C?ULCMP
      01000619H   CODE     ---       ?C?ULDIV
      010006CAH   CODE     ---       ?C?ULSHR
      00000000H   NUMBER   ---       ?C?XDATASEG
      01002FEEH   CODE     ---       ?C_START
      01000000H   CODE     ---       ?C_STARTUP
      01003A0EH   CODE     ---       _ad_to_vol
      01003595H   CODE     ---       _ADC_Inilize
      0100000EH   CODE     ---       _ADC_PowerControl
      01001C2AH   CODE     ---       _app
      01003711H   CODE     ---       _check_is_frist_lamp_on
      010034D9H   CODE     ---       _check_sum
LX51 LINKER/LOCATER V4.41                                                             11/18/2015  10:20:10  PAGE 10


      01003AABH   CODE     ---       _delay
      010036CCH   CODE     ---       _delay_1ms
      0100280BH   CODE     ---       _ee1_copy_to_ee2
      010030BEH   CODE     ---       _ee1_write_data
      010031B8H   CODE     ---       _ee2_read_data
      0100313BH   CODE     ---       _ee2_write_data
      01003752H   CODE     ---       _EEPROM_read_n
      01003A56H   CODE     ---       _EEPROM_SectorErase
      01003791H   CODE     ---       _EEPROM_write_n
      01001739H   CODE     ---       _frame_anlayze
      010011A3H   CODE     ---       _frist_lamp_on_hander
      01003537H   CODE     ---       _Get_ADC10bitResult
      01002D35H   CODE     ---       _get_adc_val
      01000B96H   CODE     ---       _get_alarm_msg
      0100251FH   CODE     ---       _get_lamp_off_alarm_status
      01000EBCH   CODE     ---       _get_lamp_on_alarm_status
      0100261DH   CODE     ---       _get_lamp_switch_alarm_status
      0100396BH   CODE     ---       _get_port_val
      01001575H   CODE     ---       _GPIO_Inilize
      010018F0H   CODE     ---       _PCA_Init
      01003B10H   CODE     ---       _PrintString1
      01003B23H   CODE     ---       _PrintString2
      01002BDBH   CODE     ---       _PWMn_Update
      01003327H   CODE     ---       _queue_de
      01003235H   CODE     ---       _queue_en
      0100002EH   CODE     ---       _queue_init
      01003AEAH   CODE     ---       _queue_is_empty
      01003876H   CODE     ---       _queue_is_full
      01003407H   CODE     ---       _queue_traverse
      010032B1H   CODE     ---       _read_lamp_work_curr_base
      01002F24H   CODE     ---       _rn8209_read_data
      01002E82H   CODE     ---       _rn8209_write_data
      01002A70H   CODE     ---       _set_alarm_status
      0100380BH   CODE     ---       _set_channel
      01002C89H   CODE     ---       _set_port_val
      01003B36H   CODE     ---       _spi_send_byte1
      01003996H   CODE     ---       _spi_write_byte
      01001A8FH   CODE     ---       _Timer_Inilize
      010038AAH   CODE     ---       _to_bin
      010037D0H   CODE     ---       _to_bin2
      010039E7H   CODE     ---       _TX1_write2buff
      010039BFH   CODE     ---       _TX2_write2buff
      01001DBFH   CODE     ---       _uart1_rx_data
      0100393EH   CODE     ---       _uart1_tx_data
      0100207DH   CODE     ---       _uart2_rx_data
      01003638H   CODE     ---       _uart2_tx_data
      010022F6H   CODE     ---       _unusual_curr
      01000821H   CODE     ---       _USART_Configuration
      0100271AH   CODE     ---       _write_lamp_work_curr_base
*SFR* 000000D0H.6 DATA     BIT       AC
*SFR* 000000E0H   DATA     BYTE      ACC
*SFR* 000000E0H   DATA     BIT       ACC0
*SFR* 000000E0H.1 DATA     BIT       ACC1
*SFR* 000000E0H.2 DATA     BIT       ACC2
*SFR* 000000E0H.3 DATA     BIT       ACC3
*SFR* 000000E0H.4 DATA     BIT       ACC4
*SFR* 000000E0H.5 DATA     BIT       ACC5
*SFR* 000000E0H.6 DATA     BIT       ACC6
*SFR* 000000E0H.7 DATA     BIT       ACC7
      01003A33H   CODE     ---       adc_config
*SFR* 000000BCH   DATA     BYTE      ADC_CONTR
      01003B5FH   CODE     ---       ADC_int
*SFR* 000000BDH   DATA     BYTE      ADC_RES
*SFR* 000000BEH   DATA     BYTE      ADC_RESL
      01003B63H   CODE     ---       all_irq_disable
LX51 LINKER/LOCATER V4.41                                                             11/18/2015  10:20:10  PAGE 11


      01003B66H   CODE     ---       all_irq_enable
*SFR* 0000008EH   DATA     BYTE      AUXR
*SFR* 000000A2H   DATA     BYTE      AUXR1
*SFR* 0000008FH   DATA     BYTE      AUXR2
*SFR* 000000F0H   DATA     BYTE      B
*SFR* 000000F0H   DATA     BIT       B0
*SFR* 000000F0H.1 DATA     BIT       B1
*SFR* 000000F0H.2 DATA     BIT       B2
*SFR* 000000F0H.3 DATA     BIT       B3
*SFR* 000000F0H.4 DATA     BIT       B4
*SFR* 000000F0H.5 DATA     BIT       B5
*SFR* 000000F0H.6 DATA     BIT       B6
*SFR* 000000F0H.7 DATA     BIT       B7
      00000020H.0 BIT      BIT       B_Capture0
      00000020H.1 BIT      BIT       B_Capture1
      00000020H.2 BIT      BIT       B_Capture2
      01003AD5H   CODE     ---       bsp_init
*SFR* 000000A1H   DATA     BYTE      BUS_SPEED
      0200053AH   XDATA    WORD      CCAP0_tmp
*SFR* 000000FAH   DATA     BYTE      CCAP0H
*SFR* 000000EAH   DATA     BYTE      CCAP0L
      0200053EH   XDATA    WORD      CCAP1_tmp
*SFR* 000000FBH   DATA     BYTE      CCAP1H
*SFR* 000000EBH   DATA     BYTE      CCAP1L
      02000542H   XDATA    WORD      CCAP2_tmp
*SFR* 000000FCH   DATA     BYTE      CCAP2H
*SFR* 000000ECH   DATA     BYTE      CCAP2L
*SFR* 000000DAH   DATA     BYTE      CCAPM0
*SFR* 000000DBH   DATA     BYTE      CCAPM1
*SFR* 000000DCH   DATA     BYTE      CCAPM2
*SFR* 000000D8H   DATA     BIT       CCF0
*SFR* 000000D8H.1 DATA     BIT       CCF1
*SFR* 000000D8H.2 DATA     BIT       CCF2
*SFR* 000000D8H   DATA     BYTE      CCON
*SFR* 00000090H.1 DATA     BIT       CCP0
*SFR* 00000090H   DATA     BIT       CCP1
*SFR* 000000B0H.7 DATA     BIT       CCP2
*SFR* 000000D8H.7 DATA     BIT       CF
*SFR* 000000F9H   DATA     BYTE      CH
*SFR* 000000E9H   DATA     BYTE      CL
*SFR* 00000097H   DATA     BYTE      CLK_DIV
*SFR* 000000B0H.5 DATA     BIT       CLKOUT0
*SFR* 000000B0H.4 DATA     BIT       CLKOUT1
*SFR* 000000D9H   DATA     BYTE      CMOD
      02000000H   XDATA    ---       COM1
      02000007H   XDATA    ---       COM2
*SFR* 000000D8H.6 DATA     BIT       CR
*SFR* 000000D0H.7 DATA     BIT       CY
      01003B47H   CODE     ---       DisableEEPROM
*SFR* 00000083H   DATA     BYTE      DPH
*SFR* 00000082H   DATA     BYTE      DPL
*SFR* 000000A8H.7 DATA     BIT       EA
*SFR* 000000A8H.5 DATA     BIT       EADC
*SFR* 000000A8H.6 DATA     BIT       ELVD
*SFR* 000000A8H.4 DATA     BIT       ES
*SFR* 000000A8H.1 DATA     BIT       ET0
*SFR* 000000A8H.3 DATA     BIT       ET1
*SFR* 000000A8H   DATA     BIT       EX0
*SFR* 000000A8H.2 DATA     BIT       EX1
*SFR* 000000D0H.5 DATA     BIT       F0
*SFR* 000000D0H.1 DATA     BIT       F1
      02000473H   XDATA    ---       g_alarm_signal
      0200049BH   XDATA    ---       g_curr_new
      0200048BH   XDATA    ---       g_curr_old
      020004ABH   XDATA    ---       g_curr_tmp
LX51 LINKER/LOCATER V4.41                                                             11/18/2015  10:20:10  PAGE 12


      020004BBH   XDATA    ---       g_power_switch_flag
      020004D3H   XDATA    ---       g_queue
      02000406H   XDATA    ---       g_time_cnt
      020004BFH   XDATA    ---       g_unusual_curr
      020004CFH   XDATA    ---       g_unusual_flag
      01003B55H   CODE     ---       get_app_wrok_status
      01003471H   CODE     ---       get_lamp_work_status
      01000046H   CODE     ---       get_switch_1_val
      01003A76H   CODE     ---       get_switch_2_val
      01003AC0H   CODE     ---       gpio_config
*SFR* 000000C3H   DATA     BYTE      IAP_ADDRH
*SFR* 000000C4H   DATA     BYTE      IAP_ADDRL
*SFR* 000000C5H   DATA     BYTE      IAP_CMD
*SFR* 000000C7H   DATA     BYTE      IAP_CONTR
*SFR* 000000C2H   DATA     BYTE      IAP_DATA
*SFR* 000000C6H   DATA     BYTE      IAP_TRIG
*SFR* 000000A8H   DATA     BYTE      IE
*SFR* 00000088H.1 DATA     BIT       IE0
*SFR* 00000088H.3 DATA     BIT       IE1
*SFR* 000000AFH   DATA     BYTE      IE2
*SFR* 000000B0H.2 DATA     BIT       INT0
*SFR* 000000B0H.3 DATA     BIT       INT1
*SFR* 0000008FH   DATA     BYTE      INT_CLKO
*SFR* 000000B8H   DATA     BYTE      IP
*SFR* 000000B5H   DATA     BYTE      IP2
*SFR* 000000B7H   DATA     BYTE      IPH
*SFR* 000000B6H   DATA     BYTE      IPH2
*SFR* 000000C3H   DATA     BYTE      ISP_ADDRH
*SFR* 000000C4H   DATA     BYTE      ISP_ADDRL
*SFR* 000000C5H   DATA     BYTE      ISP_CMD
*SFR* 000000C7H   DATA     BYTE      ISP_CONTR
*SFR* 000000C2H   DATA     BYTE      ISP_DATA
*SFR* 000000C6H   DATA     BYTE      ISP_TRIG
*SFR* 00000088H   DATA     BIT       IT0
*SFR* 00000088H.2 DATA     BIT       IT1
      01001F22H   CODE     ---       main
*SFR* 000000D0H.2 DATA     BIT       OV
*SFR* 000000D0H   DATA     BIT       P
*SFR* 00000080H   DATA     BYTE      P0
*SFR* 00000080H   DATA     BIT       P00
*SFR* 00000080H.1 DATA     BIT       P01
*SFR* 00000080H.2 DATA     BIT       P02
*SFR* 00000080H.3 DATA     BIT       P03
*SFR* 00000080H.4 DATA     BIT       P04
*SFR* 00000080H.5 DATA     BIT       P05
*SFR* 00000080H.6 DATA     BIT       P06
*SFR* 00000080H.7 DATA     BIT       P07
*SFR* 00000094H   DATA     BYTE      P0M0
*SFR* 00000093H   DATA     BYTE      P0M1
*SFR* 00000090H   DATA     BYTE      P1
*SFR* 00000090H   DATA     BIT       P10
*SFR* 00000090H.1 DATA     BIT       P11
*SFR* 00000090H.2 DATA     BIT       P12
*SFR* 00000090H.3 DATA     BIT       P13
*SFR* 00000090H.4 DATA     BIT       P14
*SFR* 00000090H.5 DATA     BIT       P15
*SFR* 00000090H.6 DATA     BIT       P16
*SFR* 00000090H.7 DATA     BIT       P17
*SFR* 0000009DH   DATA     BYTE      P1ASF
*SFR* 00000092H   DATA     BYTE      P1M0
*SFR* 00000091H   DATA     BYTE      P1M1
*SFR* 000000A0H   DATA     BYTE      P2
*SFR* 000000A0H   DATA     BIT       P20
*SFR* 000000A0H.1 DATA     BIT       P21
*SFR* 000000A0H.2 DATA     BIT       P22
LX51 LINKER/LOCATER V4.41                                                             11/18/2015  10:20:10  PAGE 13


*SFR* 000000A0H.3 DATA     BIT       P23
*SFR* 000000A0H.4 DATA     BIT       P24
*SFR* 000000A0H.5 DATA     BIT       P25
*SFR* 000000A0H.6 DATA     BIT       P26
*SFR* 000000A0H.7 DATA     BIT       P27
*SFR* 00000096H   DATA     BYTE      P2M0
*SFR* 00000095H   DATA     BYTE      P2M1
*SFR* 000000B0H   DATA     BYTE      P3
*SFR* 000000B0H   DATA     BIT       P30
*SFR* 000000B0H.1 DATA     BIT       P31
*SFR* 000000B0H.2 DATA     BIT       P32
*SFR* 000000B0H.3 DATA     BIT       P33
*SFR* 000000B0H.4 DATA     BIT       P34
*SFR* 000000B0H.5 DATA     BIT       P35
*SFR* 000000B0H.6 DATA     BIT       P36
*SFR* 000000B0H.7 DATA     BIT       P37
*SFR* 000000B2H   DATA     BYTE      P3M0
*SFR* 000000B1H   DATA     BYTE      P3M1
*SFR* 000000C0H   DATA     BYTE      P4
*SFR* 000000C0H   DATA     BIT       P40
*SFR* 000000C0H.1 DATA     BIT       P41
*SFR* 000000C0H.2 DATA     BIT       P42
*SFR* 000000C0H.3 DATA     BIT       P43
*SFR* 000000C0H.4 DATA     BIT       P44
*SFR* 000000C0H.5 DATA     BIT       P45
*SFR* 000000C0H.6 DATA     BIT       P46
*SFR* 000000C0H.7 DATA     BIT       P47
*SFR* 000000B4H   DATA     BYTE      P4M0
*SFR* 000000B3H   DATA     BYTE      P4M1
*SFR* 000000C8H   DATA     BYTE      P5
*SFR* 000000C8H   DATA     BIT       P50
*SFR* 000000C8H.1 DATA     BIT       P51
*SFR* 000000C8H.2 DATA     BIT       P52
*SFR* 000000C8H.3 DATA     BIT       P53
*SFR* 000000C8H.4 DATA     BIT       P54
*SFR* 000000C8H.5 DATA     BIT       P55
*SFR* 000000C8H.6 DATA     BIT       P56
*SFR* 000000C8H.7 DATA     BIT       P57
*SFR* 000000CAH   DATA     BYTE      P5M0
*SFR* 000000C9H   DATA     BYTE      P5M1
*SFR* 000000E8H   DATA     BYTE      P6
*SFR* 000000CCH   DATA     BYTE      P6M0
*SFR* 000000CBH   DATA     BYTE      P6M1
*SFR* 000000F8H   DATA     BYTE      P7
*SFR* 000000E2H   DATA     BYTE      P7M0
*SFR* 000000E1H   DATA     BYTE      P7M1
*SFR* 000000A2H   DATA     BYTE      P_SW1
*SFR* 000000BAH   DATA     BYTE      P_SW2
*SFR* 000000B8H.5 DATA     BIT       PADC
      02000537H   XDATA    BYTE      PCA0_mode
      02000538H   XDATA    BYTE      PCA1_mode
      02000539H   XDATA    BYTE      PCA2_mode
      01002DDFH   CODE     ---       PCA_Handler
*SFR* 000000F2H   DATA     BYTE      PCA_PWM0
*SFR* 000000F3H   DATA     BYTE      PCA_PWM1
*SFR* 000000F4H   DATA     BYTE      PCA_PWM2
      0200053CH   XDATA    WORD      PCA_Timer0
      02000540H   XDATA    WORD      PCA_Timer1
      02000544H   XDATA    WORD      PCA_Timer2
*SFR* 00000087H   DATA     BYTE      PCON
*SFR* 00000097H   DATA     BYTE      PCON2
*SFR* 000000B8H.6 DATA     BIT       PLVD
*SFR* 000000B8H.7 DATA     BIT       PPCA
      01002B2DH   CODE     ---       protocol_action
*SFR* 000000B8H.4 DATA     BIT       PS
LX51 LINKER/LOCATER V4.41                                                             11/18/2015  10:20:10  PAGE 14


*SFR* 000000D0H   DATA     BYTE      PSW
*SFR* 000000B8H.1 DATA     BIT       PT0
*SFR* 000000B8H.3 DATA     BIT       PT1
      02000546H   XDATA    WORD      PWM0_low
      02000548H   XDATA    WORD      PWM1_low
      01003841H   CODE     ---       pwm2_config
      0200054AH   XDATA    WORD      PWM2_low
*SFR* 000000B8H   DATA     BIT       PX0
*SFR* 000000B8H.2 DATA     BIT       PX1
*SFR* 00000098H.2 DATA     BIT       RB8
*SFR* 000000B0H.7 DATA     BIT       RD
*SFR* 00000098H.4 DATA     BIT       REN
*SFR* 00000098H   DATA     BIT       RI
*SFR* 000000D6H   DATA     BYTE      RL_T2H
*SFR* 000000D7H   DATA     BYTE      RL_T2L
*SFR* 000000D4H   DATA     BYTE      RL_T3H
*SFR* 000000D5H   DATA     BYTE      RL_T3L
*SFR* 000000D2H   DATA     BYTE      RL_T4H
*SFR* 000000D3H   DATA     BYTE      RL_T4L
*SFR* 0000008CH   DATA     BYTE      RL_TH0
*SFR* 0000008DH   DATA     BYTE      RL_TH1
*SFR* 0000008AH   DATA     BYTE      RL_TL0
*SFR* 0000008BH   DATA     BYTE      RL_TL1
      0100339BH   CODE     ---       rn8209_get_curr
      01003033H   CODE     ---       rn8209_get_curr1
      010035E8H   CODE     ---       rn8209_get_vol
      01003A92H   CODE     ---       rn8209_init
*SFR* 000000D0H.3 DATA     BIT       RS0
*SFR* 000000D0H.4 DATA     BIT       RS1
      0200008EH   XDATA    ---       RX1_Buffer
      0200018EH   XDATA    ---       RX2_Buffer
*SFR* 000000B0H   DATA     BIT       RXD
*SFR* 00000090H   DATA     BIT       RXD2
*SFR* 0000009BH   DATA     BYTE      S2BUF
*SFR* 0000009AH   DATA     BYTE      S2CON
*SFR* 000000ADH   DATA     BYTE      S3BUF
*SFR* 000000ACH   DATA     BYTE      S3CON
*SFR* 00000085H   DATA     BYTE      S4BUF
*SFR* 00000084H   DATA     BYTE      S4CON
*SFR* 000000A9H   DATA     BYTE      SADDR
*SFR* 000000B9H   DATA     BYTE      SADEN
      020004DFH   XDATA    BYTE      saving_flag
*SFR* 00000099H   DATA     BYTE      SBUF
*SFR* 00000098H   DATA     BYTE      SCON
*SFR* 00000098H.7 DATA     BIT       SM0
*SFR* 00000098H.6 DATA     BIT       SM1
*SFR* 00000098H.5 DATA     BIT       SM2
      01000038H   CODE     ---       soft_reset
*SFR* 00000081H   DATA     BYTE      SP
*SFR* 000000CEH   DATA     BYTE      SPCTL
*SFR* 000000CFH   DATA     BYTE      SPDAT
      0100003EH   CODE     ---       spi_init
*SFR* 00000090H.4 DATA     BIT       SPI_MISO
*SFR* 000000A0H.2 DATA     BIT       SPI_MISO_2
*SFR* 000000C0H.1 DATA     BIT       SPI_MISO_3
*SFR* 00000090H.3 DATA     BIT       SPI_MOSI
*SFR* 000000A0H.3 DATA     BIT       SPI_MOSI_2
*SFR* 000000C0H   DATA     BIT       SPI_MOSI_3
      01003687H   CODE     ---       spi_read_byte
*SFR* 00000090H.5 DATA     BIT       SPI_SCLK
*SFR* 000000A0H.1 DATA     BIT       SPI_SCLK_2
*SFR* 000000C0H.3 DATA     BIT       SPI_SCLK_3
*SFR* 00000090H.2 DATA     BIT       SPI_SS
*SFR* 000000A0H.4 DATA     BIT       SPI_SS_2
*SFR* 000000C8H.4 DATA     BIT       SPI_SS_3
LX51 LINKER/LOCATER V4.41                                                             11/18/2015  10:20:10  PAGE 15


*SFR* 000000CDH   DATA     BYTE      SPSTAT
*SFR* 000000B0H.4 DATA     BIT       T0
*SFR* 000000B0H.5 DATA     BIT       T1
*SFR* 000000D6H   DATA     BYTE      T2H
*SFR* 000000D7H   DATA     BYTE      T2L
*SFR* 000000D4H   DATA     BYTE      T3H
*SFR* 000000D5H   DATA     BYTE      T3L
*SFR* 000000D2H   DATA     BYTE      T4H
*SFR* 000000D3H   DATA     BYTE      T4L
*SFR* 000000D1H   DATA     BYTE      T4T3M
*SFR* 00000098H.3 DATA     BIT       TB8
*SFR* 00000088H   DATA     BYTE      TCON
*SFR* 00000088H.5 DATA     BIT       TF0
*SFR* 00000088H.7 DATA     BIT       TF1
*SFR* 0000008CH   DATA     BYTE      TH0
*SFR* 0000008DH   DATA     BYTE      TH1
*SFR* 000000D6H   DATA     BYTE      TH2
*SFR* 000000D4H   DATA     BYTE      TH3
*SFR* 000000D2H   DATA     BYTE      TH4
*SFR* 00000098H.1 DATA     BIT       TI
      01000003H   CODE     ---       time_init
      02000463H   XDATA    ---       time_lamp_off_checking_sec
      0200043FH   XDATA    ---       time_lamp_off_sec
      02000453H   XDATA    ---       time_lamp_on_checking_sec
      0200042FH   XDATA    ---       time_lamp_on_sec
      0200044FH   XDATA    DWORD     time_saving_sec
      01003AFDH   CODE     ---       timer0_config
      01002411H   CODE     ---       timer0_int
      01000022H   CODE     ---       timer1_int
      01003B69H   CODE     ---       timer2_int
      0100001AH   CODE     ---       timer_hour
      0100000AH   CODE     ---       timer_min
      01000009H   CODE     ---       timer_ms
      01001394H   CODE     ---       timer_sec
*SFR* 0000008AH   DATA     BYTE      TL0
*SFR* 0000008BH   DATA     BYTE      TL1
*SFR* 000000D7H   DATA     BYTE      TL2
*SFR* 000000D5H   DATA     BYTE      TL3
*SFR* 000000D3H   DATA     BYTE      TL4
*SFR* 00000089H   DATA     BYTE      TMOD
*SFR* 00000088H.4 DATA     BIT       TR0
*SFR* 00000088H.6 DATA     BIT       TR1
      0200000EH   XDATA    ---       TX1_Buffer
      0200010EH   XDATA    ---       TX2_Buffer
*SFR* 000000B0H.1 DATA     BIT       TXD
*SFR* 00000090H.1 DATA     BIT       TXD2
      010038DEH   CODE     ---       uart1_config
      010029ACH   CODE     ---       UART1_int
      0200020EH   XDATA    BYTE      uart1_tim_enable_flag
      0100390EH   CODE     ---       uart2_config
      010028E2H   CODE     ---       UART2_int
      0200020FH   XDATA    BYTE      uart2_tim_enable_flag
*SFR* 0000008FH   DATA     BYTE      WAKE_CLKO
      01000026H   CODE     ---       watchdog_clear
      0100001EH   CODE     ---       watchdog_config
*SFR* 000000C1H   DATA     BYTE      WDT_CONTR
*SFR* 000000ABH   DATA     BYTE      WKTCH
*SFR* 000000AAH   DATA     BYTE      WKTCL
      020005B4H   XDATA    BYTE      work_mode
*SFR* 000000B0H.6 DATA     BIT       WR



SYMBOL TABLE OF MODULE:  .\Obj\stc (MAIN)

LX51 LINKER/LOCATER V4.41                                                             11/18/2015  10:20:10  PAGE 16


      VALUE       REP       CLASS    TYPE      SYMBOL NAME
      ====================================================
      ---         MODULE    ---      ---       MAIN
      020005B4H   PUBLIC    XDATA    BYTE      work_mode
      01001F22H   PUBLIC    CODE     ---       main
      00000080H   SFRSYM    DATA     BYTE      P0
      00000081H   SFRSYM    DATA     BYTE      SP
      00000082H   SFRSYM    DATA     BYTE      DPL
      00000083H   SFRSYM    DATA     BYTE      DPH
      00000084H   SFRSYM    DATA     BYTE      S4CON
      00000085H   SFRSYM    DATA     BYTE      S4BUF
      00000087H   SFRSYM    DATA     BYTE      PCON
      00000088H   SFRSYM    DATA     BYTE      TCON
      00000089H   SFRSYM    DATA     BYTE      TMOD
      0000008AH   SFRSYM    DATA     BYTE      TL0
      0000008BH   SFRSYM    DATA     BYTE      TL1
      0000008CH   SFRSYM    DATA     BYTE      TH0
      0000008DH   SFRSYM    DATA     BYTE      TH1
      0000008EH   SFRSYM    DATA     BYTE      AUXR
      0000008FH   SFRSYM    DATA     BYTE      WAKE_CLKO
      0000008FH   SFRSYM    DATA     BYTE      INT_CLKO
      0000008FH   SFRSYM    DATA     BYTE      AUXR2
      0000008AH   SFRSYM    DATA     BYTE      RL_TL0
      0000008BH   SFRSYM    DATA     BYTE      RL_TL1
      0000008CH   SFRSYM    DATA     BYTE      RL_TH0
      0000008DH   SFRSYM    DATA     BYTE      RL_TH1
      00000090H   SFRSYM    DATA     BYTE      P1
      00000091H   SFRSYM    DATA     BYTE      P1M1
      00000092H   SFRSYM    DATA     BYTE      P1M0
      00000093H   SFRSYM    DATA     BYTE      P0M1
      00000094H   SFRSYM    DATA     BYTE      P0M0
      00000095H   SFRSYM    DATA     BYTE      P2M1
      00000096H   SFRSYM    DATA     BYTE      P2M0
      00000097H   SFRSYM    DATA     BYTE      CLK_DIV
      00000097H   SFRSYM    DATA     BYTE      PCON2
      00000098H   SFRSYM    DATA     BYTE      SCON
      00000099H   SFRSYM    DATA     BYTE      SBUF
      0000009AH   SFRSYM    DATA     BYTE      S2CON
      0000009BH   SFRSYM    DATA     BYTE      S2BUF
      0000009DH   SFRSYM    DATA     BYTE      P1ASF
      000000A0H   SFRSYM    DATA     BYTE      P2
      000000A1H   SFRSYM    DATA     BYTE      BUS_SPEED
      000000A2H   SFRSYM    DATA     BYTE      AUXR1
      000000A2H   SFRSYM    DATA     BYTE      P_SW1
      000000A8H   SFRSYM    DATA     BYTE      IE
      000000A9H   SFRSYM    DATA     BYTE      SADDR
      000000AAH   SFRSYM    DATA     BYTE      WKTCL
      000000ABH   SFRSYM    DATA     BYTE      WKTCH
      000000ACH   SFRSYM    DATA     BYTE      S3CON
      000000ADH   SFRSYM    DATA     BYTE      S3BUF
      000000AFH   SFRSYM    DATA     BYTE      IE2
      000000B0H   SFRSYM    DATA     BYTE      P3
      000000B1H   SFRSYM    DATA     BYTE      P3M1
      000000B2H   SFRSYM    DATA     BYTE      P3M0
      000000B3H   SFRSYM    DATA     BYTE      P4M1
      000000B4H   SFRSYM    DATA     BYTE      P4M0
      000000B5H   SFRSYM    DATA     BYTE      IP2
      000000B6H   SFRSYM    DATA     BYTE      IPH2
      000000B7H   SFRSYM    DATA     BYTE      IPH
      000000B8H   SFRSYM    DATA     BYTE      IP
      000000B9H   SFRSYM    DATA     BYTE      SADEN
      000000BAH   SFRSYM    DATA     BYTE      P_SW2
      000000BCH   SFRSYM    DATA     BYTE      ADC_CONTR
      000000BDH   SFRSYM    DATA     BYTE      ADC_RES
      000000BEH   SFRSYM    DATA     BYTE      ADC_RESL
LX51 LINKER/LOCATER V4.41                                                             11/18/2015  10:20:10  PAGE 17


      000000C0H   SFRSYM    DATA     BYTE      P4
      000000C1H   SFRSYM    DATA     BYTE      WDT_CONTR
      000000C2H   SFRSYM    DATA     BYTE      IAP_DATA
      000000C3H   SFRSYM    DATA     BYTE      IAP_ADDRH
      000000C4H   SFRSYM    DATA     BYTE      IAP_ADDRL
      000000C5H   SFRSYM    DATA     BYTE      IAP_CMD
      000000C6H   SFRSYM    DATA     BYTE      IAP_TRIG
      000000C7H   SFRSYM    DATA     BYTE      IAP_CONTR
      000000C2H   SFRSYM    DATA     BYTE      ISP_DATA
      000000C3H   SFRSYM    DATA     BYTE      ISP_ADDRH
      000000C4H   SFRSYM    DATA     BYTE      ISP_ADDRL
      000000C5H   SFRSYM    DATA     BYTE      ISP_CMD
      000000C6H   SFRSYM    DATA     BYTE      ISP_TRIG
      000000C7H   SFRSYM    DATA     BYTE      ISP_CONTR
      000000C8H   SFRSYM    DATA     BYTE      P5
      000000C9H   SFRSYM    DATA     BYTE      P5M1
      000000CAH   SFRSYM    DATA     BYTE      P5M0
      000000CBH   SFRSYM    DATA     BYTE      P6M1
      000000CCH   SFRSYM    DATA     BYTE      P6M0
      000000CDH   SFRSYM    DATA     BYTE      SPSTAT
      000000CEH   SFRSYM    DATA     BYTE      SPCTL
      000000CFH   SFRSYM    DATA     BYTE      SPDAT
      000000D0H   SFRSYM    DATA     BYTE      PSW
      000000D1H   SFRSYM    DATA     BYTE      T4T3M
      000000D2H   SFRSYM    DATA     BYTE      T4H
      000000D3H   SFRSYM    DATA     BYTE      T4L
      000000D4H   SFRSYM    DATA     BYTE      T3H
      000000D5H   SFRSYM    DATA     BYTE      T3L
      000000D6H   SFRSYM    DATA     BYTE      T2H
      000000D7H   SFRSYM    DATA     BYTE      T2L
      000000D2H   SFRSYM    DATA     BYTE      TH4
      000000D3H   SFRSYM    DATA     BYTE      TL4
      000000D4H   SFRSYM    DATA     BYTE      TH3
      000000D5H   SFRSYM    DATA     BYTE      TL3
      000000D6H   SFRSYM    DATA     BYTE      TH2
      000000D7H   SFRSYM    DATA     BYTE      TL2
      000000D2H   SFRSYM    DATA     BYTE      RL_T4H
      000000D3H   SFRSYM    DATA     BYTE      RL_T4L
      000000D4H   SFRSYM    DATA     BYTE      RL_T3H
      000000D5H   SFRSYM    DATA     BYTE      RL_T3L
      000000D6H   SFRSYM    DATA     BYTE      RL_T2H
      000000D7H   SFRSYM    DATA     BYTE      RL_T2L
      000000D8H   SFRSYM    DATA     BYTE      CCON
      000000D9H   SFRSYM    DATA     BYTE      CMOD
      000000DAH   SFRSYM    DATA     BYTE      CCAPM0
      000000DBH   SFRSYM    DATA     BYTE      CCAPM1
      000000DCH   SFRSYM    DATA     BYTE      CCAPM2
      000000E0H   SFRSYM    DATA     BYTE      ACC
      000000E1H   SFRSYM    DATA     BYTE      P7M1
      000000E2H   SFRSYM    DATA     BYTE      P7M0
      000000E8H   SFRSYM    DATA     BYTE      P6
      000000E9H   SFRSYM    DATA     BYTE      CL
      000000EAH   SFRSYM    DATA     BYTE      CCAP0L
      000000EBH   SFRSYM    DATA     BYTE      CCAP1L
      000000ECH   SFRSYM    DATA     BYTE      CCAP2L
      000000F0H   SFRSYM    DATA     BYTE      B
      000000F2H   SFRSYM    DATA     BYTE      PCA_PWM0
      000000F3H   SFRSYM    DATA     BYTE      PCA_PWM1
      000000F4H   SFRSYM    DATA     BYTE      PCA_PWM2
      000000F8H   SFRSYM    DATA     BYTE      P7
      000000F9H   SFRSYM    DATA     BYTE      CH
      000000FAH   SFRSYM    DATA     BYTE      CCAP0H
      000000FBH   SFRSYM    DATA     BYTE      CCAP1H
      000000FCH   SFRSYM    DATA     BYTE      CCAP2H
      000000D0H.7 SFRSYM    DATA     BIT       CY
LX51 LINKER/LOCATER V4.41                                                             11/18/2015  10:20:10  PAGE 18


      000000D0H.6 SFRSYM    DATA     BIT       AC
      000000D0H.5 SFRSYM    DATA     BIT       F0
      000000D0H.4 SFRSYM    DATA     BIT       RS1
      000000D0H.3 SFRSYM    DATA     BIT       RS0
      000000D0H.2 SFRSYM    DATA     BIT       OV
      000000D0H.1 SFRSYM    DATA     BIT       F1
      000000D0H   SFRSYM    DATA     BIT       P
      00000088H.7 SFRSYM    DATA     BIT       TF1
      00000088H.6 SFRSYM    DATA     BIT       TR1
      00000088H.5 SFRSYM    DATA     BIT       TF0
      00000088H.4 SFRSYM    DATA     BIT       TR0
      00000088H.3 SFRSYM    DATA     BIT       IE1
      00000088H.2 SFRSYM    DATA     BIT       IT1
      00000088H.1 SFRSYM    DATA     BIT       IE0
      00000088H   SFRSYM    DATA     BIT       IT0
      00000080H   SFRSYM    DATA     BIT       P00
      00000080H.1 SFRSYM    DATA     BIT       P01
      00000080H.2 SFRSYM    DATA     BIT       P02
      00000080H.3 SFRSYM    DATA     BIT       P03
      00000080H.4 SFRSYM    DATA     BIT       P04
      00000080H.5 SFRSYM    DATA     BIT       P05
      00000080H.6 SFRSYM    DATA     BIT       P06
      00000080H.7 SFRSYM    DATA     BIT       P07
      00000090H   SFRSYM    DATA     BIT       P10
      00000090H.1 SFRSYM    DATA     BIT       P11
      00000090H.2 SFRSYM    DATA     BIT       P12
      00000090H.3 SFRSYM    DATA     BIT       P13
      00000090H.4 SFRSYM    DATA     BIT       P14
      00000090H.5 SFRSYM    DATA     BIT       P15
      00000090H.6 SFRSYM    DATA     BIT       P16
      00000090H.7 SFRSYM    DATA     BIT       P17
      00000090H   SFRSYM    DATA     BIT       RXD2
      00000090H.1 SFRSYM    DATA     BIT       TXD2
      00000090H   SFRSYM    DATA     BIT       CCP1
      00000090H.1 SFRSYM    DATA     BIT       CCP0
      00000090H.2 SFRSYM    DATA     BIT       SPI_SS
      00000090H.3 SFRSYM    DATA     BIT       SPI_MOSI
      00000090H.4 SFRSYM    DATA     BIT       SPI_MISO
      00000090H.5 SFRSYM    DATA     BIT       SPI_SCLK
      000000A0H.4 SFRSYM    DATA     BIT       SPI_SS_2
      000000A0H.3 SFRSYM    DATA     BIT       SPI_MOSI_2
      000000A0H.2 SFRSYM    DATA     BIT       SPI_MISO_2
      000000A0H.1 SFRSYM    DATA     BIT       SPI_SCLK_2
      000000C8H.4 SFRSYM    DATA     BIT       SPI_SS_3
      000000C0H   SFRSYM    DATA     BIT       SPI_MOSI_3
      000000C0H.1 SFRSYM    DATA     BIT       SPI_MISO_3
      000000C0H.3 SFRSYM    DATA     BIT       SPI_SCLK_3
      000000A0H   SFRSYM    DATA     BIT       P20
      000000A0H.1 SFRSYM    DATA     BIT       P21
      000000A0H.2 SFRSYM    DATA     BIT       P22
      000000A0H.3 SFRSYM    DATA     BIT       P23
      000000A0H.4 SFRSYM    DATA     BIT       P24
      000000A0H.5 SFRSYM    DATA     BIT       P25
      000000A0H.6 SFRSYM    DATA     BIT       P26
      000000A0H.7 SFRSYM    DATA     BIT       P27
      000000B0H   SFRSYM    DATA     BIT       P30
      000000B0H.1 SFRSYM    DATA     BIT       P31
      000000B0H.2 SFRSYM    DATA     BIT       P32
      000000B0H.3 SFRSYM    DATA     BIT       P33
      000000B0H.4 SFRSYM    DATA     BIT       P34
      000000B0H.5 SFRSYM    DATA     BIT       P35
      000000B0H.6 SFRSYM    DATA     BIT       P36
      000000B0H.7 SFRSYM    DATA     BIT       P37
      000000B0H   SFRSYM    DATA     BIT       RXD
      000000B0H.1 SFRSYM    DATA     BIT       TXD
LX51 LINKER/LOCATER V4.41                                                             11/18/2015  10:20:10  PAGE 19


      000000B0H.2 SFRSYM    DATA     BIT       INT0
      000000B0H.3 SFRSYM    DATA     BIT       INT1
      000000B0H.4 SFRSYM    DATA     BIT       T0
      000000B0H.5 SFRSYM    DATA     BIT       T1
      000000B0H.6 SFRSYM    DATA     BIT       WR
      000000B0H.7 SFRSYM    DATA     BIT       RD
      000000B0H.7 SFRSYM    DATA     BIT       CCP2
      000000B0H.5 SFRSYM    DATA     BIT       CLKOUT0
      000000B0H.4 SFRSYM    DATA     BIT       CLKOUT1
      000000C0H   SFRSYM    DATA     BIT       P40
      000000C0H.1 SFRSYM    DATA     BIT       P41
      000000C0H.2 SFRSYM    DATA     BIT       P42
      000000C0H.3 SFRSYM    DATA     BIT       P43
      000000C0H.4 SFRSYM    DATA     BIT       P44
      000000C0H.5 SFRSYM    DATA     BIT       P45
      000000C0H.6 SFRSYM    DATA     BIT       P46
      000000C0H.7 SFRSYM    DATA     BIT       P47
      000000C8H   SFRSYM    DATA     BIT       P50
      000000C8H.1 SFRSYM    DATA     BIT       P51
      000000C8H.2 SFRSYM    DATA     BIT       P52
      000000C8H.3 SFRSYM    DATA     BIT       P53
      000000C8H.4 SFRSYM    DATA     BIT       P54
      000000C8H.5 SFRSYM    DATA     BIT       P55
      000000C8H.6 SFRSYM    DATA     BIT       P56
      000000C8H.7 SFRSYM    DATA     BIT       P57
      00000098H.7 SFRSYM    DATA     BIT       SM0
      00000098H.6 SFRSYM    DATA     BIT       SM1
      00000098H.5 SFRSYM    DATA     BIT       SM2
      00000098H.4 SFRSYM    DATA     BIT       REN
      00000098H.3 SFRSYM    DATA     BIT       TB8
      00000098H.2 SFRSYM    DATA     BIT       RB8
      00000098H.1 SFRSYM    DATA     BIT       TI
      00000098H   SFRSYM    DATA     BIT       RI
      000000A8H.7 SFRSYM    DATA     BIT       EA
      000000A8H.6 SFRSYM    DATA     BIT       ELVD
      000000A8H.5 SFRSYM    DATA     BIT       EADC
      000000A8H.4 SFRSYM    DATA     BIT       ES
      000000A8H.3 SFRSYM    DATA     BIT       ET1
      000000A8H.2 SFRSYM    DATA     BIT       EX1
      000000A8H.1 SFRSYM    DATA     BIT       ET0
      000000A8H   SFRSYM    DATA     BIT       EX0
      000000E0H   SFRSYM    DATA     BIT       ACC0
      000000E0H.1 SFRSYM    DATA     BIT       ACC1
      000000E0H.2 SFRSYM    DATA     BIT       ACC2
      000000E0H.3 SFRSYM    DATA     BIT       ACC3
      000000E0H.4 SFRSYM    DATA     BIT       ACC4
      000000E0H.5 SFRSYM    DATA     BIT       ACC5
      000000E0H.6 SFRSYM    DATA     BIT       ACC6
      000000E0H.7 SFRSYM    DATA     BIT       ACC7
      000000F0H   SFRSYM    DATA     BIT       B0
      000000F0H.1 SFRSYM    DATA     BIT       B1
      000000F0H.2 SFRSYM    DATA     BIT       B2
      000000F0H.3 SFRSYM    DATA     BIT       B3
      000000F0H.4 SFRSYM    DATA     BIT       B4
      000000F0H.5 SFRSYM    DATA     BIT       B5
      000000F0H.6 SFRSYM    DATA     BIT       B6
      000000F0H.7 SFRSYM    DATA     BIT       B7
      000000B8H.7 SFRSYM    DATA     BIT       PPCA
      000000B8H.6 SFRSYM    DATA     BIT       PLVD
      000000B8H.5 SFRSYM    DATA     BIT       PADC
      000000B8H.4 SFRSYM    DATA     BIT       PS
      000000B8H.3 SFRSYM    DATA     BIT       PT1
      000000B8H.2 SFRSYM    DATA     BIT       PX1
      000000B8H.1 SFRSYM    DATA     BIT       PT0
      000000B8H   SFRSYM    DATA     BIT       PX0
LX51 LINKER/LOCATER V4.41                                                             11/18/2015  10:20:10  PAGE 20


      000000D8H   SFRSYM    DATA     BIT       CCF0
      000000D8H.1 SFRSYM    DATA     BIT       CCF1
      000000D8H.2 SFRSYM    DATA     BIT       CCF2
      000000D8H.6 SFRSYM    DATA     BIT       CR
      000000D8H.7 SFRSYM    DATA     BIT       CF
      01003C9EH   SYMBOL    CONST    ---       _?ix1000
      01003CA1H   SYMBOL    CONST    ---       _?ix1001

      01001F22H   BLOCK     CODE     ---       LVL=0
      01001F22H   BLOCK     CODE     NEAR LAB  LVL=1
      02000213H   SYMBOL    XDATA    WORD      ad_val
      02000215H   SYMBOL    XDATA    BYTE      i
      02000216H   SYMBOL    XDATA    BYTE      flag
      02000217H   SYMBOL    XDATA    ---       arr
      0200021AH   SYMBOL    XDATA    BYTE      status
      0200021BH   SYMBOL    XDATA    ---       saving_level
      0200021FH   SYMBOL    XDATA    DWORD     tmp
      ---         BLOCKEND  ---      ---       LVL=1
      01001F22H   LINE      CODE     ---       #26
      01001F22H   LINE      CODE     ---       #27
      01001F22H   LINE      CODE     ---       #28
      01001F29H   LINE      CODE     ---       #29
      01001F45H   LINE      CODE     ---       #30
      01001F57H   LINE      CODE     ---       #31
      01001F61H   LINE      CODE     ---       #32
      01001F64H   LINE      CODE     ---       #33
      01001F67H   LINE      CODE     ---       #34
      01001F6AH   LINE      CODE     ---       #36
      01001F72H   LINE      CODE     ---       #38
      01001F77H   LINE      CODE     ---       #39
      01001F7FH   LINE      CODE     ---       #41
      01001F82H   LINE      CODE     ---       #42
      01001F8BH   LINE      CODE     ---       #44
      01001F92H   LINE      CODE     ---       #45
      01001F97H   LINE      CODE     ---       #46
      01001F97H   LINE      CODE     ---       #47
      01001F97H   LINE      CODE     ---       #49
      01001F9AH   LINE      CODE     ---       #50
      01001FABH   LINE      CODE     ---       #51
      01001FABH   LINE      CODE     ---       #52
      01001FABH   LINE      CODE     ---       #53
      01001FB3H   LINE      CODE     ---       #54
      01001FB3H   LINE      CODE     ---       #55
      01001FB5H   LINE      CODE     ---       #57
      01001FB5H   LINE      CODE     ---       #58
      01001FF1H   LINE      CODE     ---       #59
      01001FF1H   LINE      CODE     ---       #60
      01001FF9H   LINE      CODE     ---       #61
      01001FFFH   LINE      CODE     ---       #62
      01002005H   LINE      CODE     ---       #63
      01002005H   LINE      CODE     ---       #64
      01002007H   LINE      CODE     ---       #65
      01002007H   LINE      CODE     ---       #67
      01002007H   LINE      CODE     ---       #68
      01002007H   LINE      CODE     ---       #69
      01002009H   LINE      CODE     ---       #71
      01002009H   LINE      CODE     ---       #72
      0100200CH   LINE      CODE     ---       #73
      01002012H   LINE      CODE     ---       #74
      01002014H   LINE      CODE     ---       #76
      01002014H   LINE      CODE     ---       #77
      0100201DH   LINE      CODE     ---       #78
      01002022H   LINE      CODE     ---       #79
      01002022H   LINE      CODE     ---       #81
      01002022H   LINE      CODE     ---       #82
LX51 LINKER/LOCATER V4.41                                                             11/18/2015  10:20:10  PAGE 21


      01002022H   LINE      CODE     ---       #83
      01002022H   LINE      CODE     ---       #85
      01002061H   LINE      CODE     ---       #86
      01002061H   LINE      CODE     ---       #87
      01002069H   LINE      CODE     ---       #88
      01002069H   LINE      CODE     ---       #89
      01002070H   LINE      CODE     ---       #90
      01002073H   LINE      CODE     ---       #92
      01002073H   LINE      CODE     ---       #93
      0100207AH   LINE      CODE     ---       #94
      0100207AH   LINE      CODE     ---       #95
      0100207AH   LINE      CODE     ---       #97
      ---         BLOCKEND  ---      ---       LVL=0

      ---         MODULE    ---      ---       SPI
      01003B36H   PUBLIC    CODE     ---       _spi_send_byte1
      01003687H   PUBLIC    CODE     ---       spi_read_byte
      01003996H   PUBLIC    CODE     ---       _spi_write_byte
      00000080H   SFRSYM    DATA     BYTE      P0
      00000081H   SFRSYM    DATA     BYTE      SP
      00000082H   SFRSYM    DATA     BYTE      DPL
      00000083H   SFRSYM    DATA     BYTE      DPH
      00000084H   SFRSYM    DATA     BYTE      S4CON
      00000085H   SFRSYM    DATA     BYTE      S4BUF
      00000087H   SFRSYM    DATA     BYTE      PCON
      00000088H   SFRSYM    DATA     BYTE      TCON
      00000089H   SFRSYM    DATA     BYTE      TMOD
      0000008AH   SFRSYM    DATA     BYTE      TL0
      0000008BH   SFRSYM    DATA     BYTE      TL1
      0000008CH   SFRSYM    DATA     BYTE      TH0
      0000008DH   SFRSYM    DATA     BYTE      TH1
      0000008EH   SFRSYM    DATA     BYTE      AUXR
      0000008FH   SFRSYM    DATA     BYTE      WAKE_CLKO
      0000008FH   SFRSYM    DATA     BYTE      INT_CLKO
      0000008FH   SFRSYM    DATA     BYTE      AUXR2
      0000008AH   SFRSYM    DATA     BYTE      RL_TL0
      0000008BH   SFRSYM    DATA     BYTE      RL_TL1
      0000008CH   SFRSYM    DATA     BYTE      RL_TH0
      0000008DH   SFRSYM    DATA     BYTE      RL_TH1
      00000090H   SFRSYM    DATA     BYTE      P1
      00000091H   SFRSYM    DATA     BYTE      P1M1
      00000092H   SFRSYM    DATA     BYTE      P1M0
      00000093H   SFRSYM    DATA     BYTE      P0M1
      00000094H   SFRSYM    DATA     BYTE      P0M0
      00000095H   SFRSYM    DATA     BYTE      P2M1
      00000096H   SFRSYM    DATA     BYTE      P2M0
      00000097H   SFRSYM    DATA     BYTE      CLK_DIV
      00000097H   SFRSYM    DATA     BYTE      PCON2
      00000098H   SFRSYM    DATA     BYTE      SCON
      00000099H   SFRSYM    DATA     BYTE      SBUF
      0000009AH   SFRSYM    DATA     BYTE      S2CON
      0000009BH   SFRSYM    DATA     BYTE      S2BUF
      0000009DH   SFRSYM    DATA     BYTE      P1ASF
      000000A0H   SFRSYM    DATA     BYTE      P2
      000000A1H   SFRSYM    DATA     BYTE      BUS_SPEED
      000000A2H   SFRSYM    DATA     BYTE      AUXR1
      000000A2H   SFRSYM    DATA     BYTE      P_SW1
      000000A8H   SFRSYM    DATA     BYTE      IE
      000000A9H   SFRSYM    DATA     BYTE      SADDR
      000000AAH   SFRSYM    DATA     BYTE      WKTCL
      000000ABH   SFRSYM    DATA     BYTE      WKTCH
      000000ACH   SFRSYM    DATA     BYTE      S3CON
      000000ADH   SFRSYM    DATA     BYTE      S3BUF
      000000AFH   SFRSYM    DATA     BYTE      IE2
      000000B0H   SFRSYM    DATA     BYTE      P3
LX51 LINKER/LOCATER V4.41                                                             11/18/2015  10:20:10  PAGE 22


      000000B1H   SFRSYM    DATA     BYTE      P3M1
      000000B2H   SFRSYM    DATA     BYTE      P3M0
      000000B3H   SFRSYM    DATA     BYTE      P4M1
      000000B4H   SFRSYM    DATA     BYTE      P4M0
      000000B5H   SFRSYM    DATA     BYTE      IP2
      000000B6H   SFRSYM    DATA     BYTE      IPH2
      000000B7H   SFRSYM    DATA     BYTE      IPH
      000000B8H   SFRSYM    DATA     BYTE      IP
      000000B9H   SFRSYM    DATA     BYTE      SADEN
      000000BAH   SFRSYM    DATA     BYTE      P_SW2
      000000BCH   SFRSYM    DATA     BYTE      ADC_CONTR
      000000BDH   SFRSYM    DATA     BYTE      ADC_RES
      000000BEH   SFRSYM    DATA     BYTE      ADC_RESL
      000000C0H   SFRSYM    DATA     BYTE      P4
      000000C1H   SFRSYM    DATA     BYTE      WDT_CONTR
      000000C2H   SFRSYM    DATA     BYTE      IAP_DATA
      000000C3H   SFRSYM    DATA     BYTE      IAP_ADDRH
      000000C4H   SFRSYM    DATA     BYTE      IAP_ADDRL
      000000C5H   SFRSYM    DATA     BYTE      IAP_CMD
      000000C6H   SFRSYM    DATA     BYTE      IAP_TRIG
      000000C7H   SFRSYM    DATA     BYTE      IAP_CONTR
      000000C2H   SFRSYM    DATA     BYTE      ISP_DATA
      000000C3H   SFRSYM    DATA     BYTE      ISP_ADDRH
      000000C4H   SFRSYM    DATA     BYTE      ISP_ADDRL
      000000C5H   SFRSYM    DATA     BYTE      ISP_CMD
      000000C6H   SFRSYM    DATA     BYTE      ISP_TRIG
      000000C7H   SFRSYM    DATA     BYTE      ISP_CONTR
      000000C8H   SFRSYM    DATA     BYTE      P5
      000000C9H   SFRSYM    DATA     BYTE      P5M1
      000000CAH   SFRSYM    DATA     BYTE      P5M0
      000000CBH   SFRSYM    DATA     BYTE      P6M1
      000000CCH   SFRSYM    DATA     BYTE      P6M0
      000000CDH   SFRSYM    DATA     BYTE      SPSTAT
      000000CEH   SFRSYM    DATA     BYTE      SPCTL
      000000CFH   SFRSYM    DATA     BYTE      SPDAT
      000000D0H   SFRSYM    DATA     BYTE      PSW
      000000D1H   SFRSYM    DATA     BYTE      T4T3M
      000000D2H   SFRSYM    DATA     BYTE      T4H
      000000D3H   SFRSYM    DATA     BYTE      T4L
      000000D4H   SFRSYM    DATA     BYTE      T3H
      000000D5H   SFRSYM    DATA     BYTE      T3L
      000000D6H   SFRSYM    DATA     BYTE      T2H
      000000D7H   SFRSYM    DATA     BYTE      T2L
      000000D2H   SFRSYM    DATA     BYTE      TH4
      000000D3H   SFRSYM    DATA     BYTE      TL4
      000000D4H   SFRSYM    DATA     BYTE      TH3
      000000D5H   SFRSYM    DATA     BYTE      TL3
      000000D6H   SFRSYM    DATA     BYTE      TH2
      000000D7H   SFRSYM    DATA     BYTE      TL2
      000000D2H   SFRSYM    DATA     BYTE      RL_T4H
      000000D3H   SFRSYM    DATA     BYTE      RL_T4L
      000000D4H   SFRSYM    DATA     BYTE      RL_T3H
      000000D5H   SFRSYM    DATA     BYTE      RL_T3L
      000000D6H   SFRSYM    DATA     BYTE      RL_T2H
      000000D7H   SFRSYM    DATA     BYTE      RL_T2L
      000000D8H   SFRSYM    DATA     BYTE      CCON
      000000D9H   SFRSYM    DATA     BYTE      CMOD
      000000DAH   SFRSYM    DATA     BYTE      CCAPM0
      000000DBH   SFRSYM    DATA     BYTE      CCAPM1
      000000DCH   SFRSYM    DATA     BYTE      CCAPM2
      000000E0H   SFRSYM    DATA     BYTE      ACC
      000000E1H   SFRSYM    DATA     BYTE      P7M1
      000000E2H   SFRSYM    DATA     BYTE      P7M0
      000000E8H   SFRSYM    DATA     BYTE      P6
      000000E9H   SFRSYM    DATA     BYTE      CL
LX51 LINKER/LOCATER V4.41                                                             11/18/2015  10:20:10  PAGE 23


      000000EAH   SFRSYM    DATA     BYTE      CCAP0L
      000000EBH   SFRSYM    DATA     BYTE      CCAP1L
      000000ECH   SFRSYM    DATA     BYTE      CCAP2L
      000000F0H   SFRSYM    DATA     BYTE      B
      000000F2H   SFRSYM    DATA     BYTE      PCA_PWM0
      000000F3H   SFRSYM    DATA     BYTE      PCA_PWM1
      000000F4H   SFRSYM    DATA     BYTE      PCA_PWM2
      000000F8H   SFRSYM    DATA     BYTE      P7
      000000F9H   SFRSYM    DATA     BYTE      CH
      000000FAH   SFRSYM    DATA     BYTE      CCAP0H
      000000FBH   SFRSYM    DATA     BYTE      CCAP1H
      000000FCH   SFRSYM    DATA     BYTE      CCAP2H
      000000D0H.7 SFRSYM    DATA     BIT       CY
      000000D0H.6 SFRSYM    DATA     BIT       AC
      000000D0H.5 SFRSYM    DATA     BIT       F0
      000000D0H.4 SFRSYM    DATA     BIT       RS1
      000000D0H.3 SFRSYM    DATA     BIT       RS0
      000000D0H.2 SFRSYM    DATA     BIT       OV
      000000D0H.1 SFRSYM    DATA     BIT       F1
      000000D0H   SFRSYM    DATA     BIT       P
      00000088H.7 SFRSYM    DATA     BIT       TF1
      00000088H.6 SFRSYM    DATA     BIT       TR1
      00000088H.5 SFRSYM    DATA     BIT       TF0
      00000088H.4 SFRSYM    DATA     BIT       TR0
      00000088H.3 SFRSYM    DATA     BIT       IE1
      00000088H.2 SFRSYM    DATA     BIT       IT1
      00000088H.1 SFRSYM    DATA     BIT       IE0
      00000088H   SFRSYM    DATA     BIT       IT0
      00000080H   SFRSYM    DATA     BIT       P00
      00000080H.1 SFRSYM    DATA     BIT       P01
      00000080H.2 SFRSYM    DATA     BIT       P02
      00000080H.3 SFRSYM    DATA     BIT       P03
      00000080H.4 SFRSYM    DATA     BIT       P04
      00000080H.5 SFRSYM    DATA     BIT       P05
      00000080H.6 SFRSYM    DATA     BIT       P06
      00000080H.7 SFRSYM    DATA     BIT       P07
      00000090H   SFRSYM    DATA     BIT       P10
      00000090H.1 SFRSYM    DATA     BIT       P11
      00000090H.2 SFRSYM    DATA     BIT       P12
      00000090H.3 SFRSYM    DATA     BIT       P13
      00000090H.4 SFRSYM    DATA     BIT       P14
      00000090H.5 SFRSYM    DATA     BIT       P15
      00000090H.6 SFRSYM    DATA     BIT       P16
      00000090H.7 SFRSYM    DATA     BIT       P17
      00000090H   SFRSYM    DATA     BIT       RXD2
      00000090H.1 SFRSYM    DATA     BIT       TXD2
      00000090H   SFRSYM    DATA     BIT       CCP1
      00000090H.1 SFRSYM    DATA     BIT       CCP0
      00000090H.2 SFRSYM    DATA     BIT       SPI_SS
      00000090H.3 SFRSYM    DATA     BIT       SPI_MOSI
      00000090H.4 SFRSYM    DATA     BIT       SPI_MISO
      00000090H.5 SFRSYM    DATA     BIT       SPI_SCLK
      000000A0H.4 SFRSYM    DATA     BIT       SPI_SS_2
      000000A0H.3 SFRSYM    DATA     BIT       SPI_MOSI_2
      000000A0H.2 SFRSYM    DATA     BIT       SPI_MISO_2
      000000A0H.1 SFRSYM    DATA     BIT       SPI_SCLK_2
      000000C8H.4 SFRSYM    DATA     BIT       SPI_SS_3
      000000C0H   SFRSYM    DATA     BIT       SPI_MOSI_3
      000000C0H.1 SFRSYM    DATA     BIT       SPI_MISO_3
      000000C0H.3 SFRSYM    DATA     BIT       SPI_SCLK_3
      000000A0H   SFRSYM    DATA     BIT       P20
      000000A0H.1 SFRSYM    DATA     BIT       P21
      000000A0H.2 SFRSYM    DATA     BIT       P22
      000000A0H.3 SFRSYM    DATA     BIT       P23
      000000A0H.4 SFRSYM    DATA     BIT       P24
LX51 LINKER/LOCATER V4.41                                                             11/18/2015  10:20:10  PAGE 24


      000000A0H.5 SFRSYM    DATA     BIT       P25
      000000A0H.6 SFRSYM    DATA     BIT       P26
      000000A0H.7 SFRSYM    DATA     BIT       P27
      000000B0H   SFRSYM    DATA     BIT       P30
      000000B0H.1 SFRSYM    DATA     BIT       P31
      000000B0H.2 SFRSYM    DATA     BIT       P32
      000000B0H.3 SFRSYM    DATA     BIT       P33
      000000B0H.4 SFRSYM    DATA     BIT       P34
      000000B0H.5 SFRSYM    DATA     BIT       P35
      000000B0H.6 SFRSYM    DATA     BIT       P36
      000000B0H.7 SFRSYM    DATA     BIT       P37
      000000B0H   SFRSYM    DATA     BIT       RXD
      000000B0H.1 SFRSYM    DATA     BIT       TXD
      000000B0H.2 SFRSYM    DATA     BIT       INT0
      000000B0H.3 SFRSYM    DATA     BIT       INT1
      000000B0H.4 SFRSYM    DATA     BIT       T0
      000000B0H.5 SFRSYM    DATA     BIT       T1
      000000B0H.6 SFRSYM    DATA     BIT       WR
      000000B0H.7 SFRSYM    DATA     BIT       RD
      000000B0H.7 SFRSYM    DATA     BIT       CCP2
      000000B0H.5 SFRSYM    DATA     BIT       CLKOUT0
      000000B0H.4 SFRSYM    DATA     BIT       CLKOUT1
      000000C0H   SFRSYM    DATA     BIT       P40
      000000C0H.1 SFRSYM    DATA     BIT       P41
      000000C0H.2 SFRSYM    DATA     BIT       P42
      000000C0H.3 SFRSYM    DATA     BIT       P43
      000000C0H.4 SFRSYM    DATA     BIT       P44
      000000C0H.5 SFRSYM    DATA     BIT       P45
      000000C0H.6 SFRSYM    DATA     BIT       P46
      000000C0H.7 SFRSYM    DATA     BIT       P47
      000000C8H   SFRSYM    DATA     BIT       P50
      000000C8H.1 SFRSYM    DATA     BIT       P51
      000000C8H.2 SFRSYM    DATA     BIT       P52
      000000C8H.3 SFRSYM    DATA     BIT       P53
      000000C8H.4 SFRSYM    DATA     BIT       P54
      000000C8H.5 SFRSYM    DATA     BIT       P55
      000000C8H.6 SFRSYM    DATA     BIT       P56
      000000C8H.7 SFRSYM    DATA     BIT       P57
      00000098H.7 SFRSYM    DATA     BIT       SM0
      00000098H.6 SFRSYM    DATA     BIT       SM1
      00000098H.5 SFRSYM    DATA     BIT       SM2
      00000098H.4 SFRSYM    DATA     BIT       REN
      00000098H.3 SFRSYM    DATA     BIT       TB8
      00000098H.2 SFRSYM    DATA     BIT       RB8
      00000098H.1 SFRSYM    DATA     BIT       TI
      00000098H   SFRSYM    DATA     BIT       RI
      000000A8H.7 SFRSYM    DATA     BIT       EA
      000000A8H.6 SFRSYM    DATA     BIT       ELVD
      000000A8H.5 SFRSYM    DATA     BIT       EADC
      000000A8H.4 SFRSYM    DATA     BIT       ES
      000000A8H.3 SFRSYM    DATA     BIT       ET1
      000000A8H.2 SFRSYM    DATA     BIT       EX1
      000000A8H.1 SFRSYM    DATA     BIT       ET0
      000000A8H   SFRSYM    DATA     BIT       EX0
      000000E0H   SFRSYM    DATA     BIT       ACC0
      000000E0H.1 SFRSYM    DATA     BIT       ACC1
      000000E0H.2 SFRSYM    DATA     BIT       ACC2
      000000E0H.3 SFRSYM    DATA     BIT       ACC3
      000000E0H.4 SFRSYM    DATA     BIT       ACC4
      000000E0H.5 SFRSYM    DATA     BIT       ACC5
      000000E0H.6 SFRSYM    DATA     BIT       ACC6
      000000E0H.7 SFRSYM    DATA     BIT       ACC7
      000000F0H   SFRSYM    DATA     BIT       B0
      000000F0H.1 SFRSYM    DATA     BIT       B1
      000000F0H.2 SFRSYM    DATA     BIT       B2
LX51 LINKER/LOCATER V4.41                                                             11/18/2015  10:20:10  PAGE 25


      000000F0H.3 SFRSYM    DATA     BIT       B3
      000000F0H.4 SFRSYM    DATA     BIT       B4
      000000F0H.5 SFRSYM    DATA     BIT       B5
      000000F0H.6 SFRSYM    DATA     BIT       B6
      000000F0H.7 SFRSYM    DATA     BIT       B7
      000000B8H.7 SFRSYM    DATA     BIT       PPCA
      000000B8H.6 SFRSYM    DATA     BIT       PLVD
      000000B8H.5 SFRSYM    DATA     BIT       PADC
      000000B8H.4 SFRSYM    DATA     BIT       PS
      000000B8H.3 SFRSYM    DATA     BIT       PT1
      000000B8H.2 SFRSYM    DATA     BIT       PX1
      000000B8H.1 SFRSYM    DATA     BIT       PT0
      000000B8H   SFRSYM    DATA     BIT       PX0
      000000D8H   SFRSYM    DATA     BIT       CCF0
      000000D8H.1 SFRSYM    DATA     BIT       CCF1
      000000D8H.2 SFRSYM    DATA     BIT       CCF2
      000000D8H.6 SFRSYM    DATA     BIT       CR
      000000D8H.7 SFRSYM    DATA     BIT       CF

      01003996H   BLOCK     CODE     ---       LVL=0
      00000007H   SYMBOL    DATA     BYTE      ch
      01003996H   BLOCK     CODE     NEAR LAB  LVL=1
      0000000CH   SYMBOL    DATA     BYTE      val
      0000000DH   SYMBOL    DATA     BYTE      i
      0000000EH   SYMBOL    DATA     BYTE      miso
      0200023EH   SYMBOL    XDATA    BYTE      k
      0200023FH   SYMBOL    XDATA    BYTE      j
      ---         BLOCKEND  ---      ---       LVL=1
      01003996H   LINE      CODE     ---       #8
      01003996H   LINE      CODE     ---       #9
      01003996H   LINE      CODE     ---       #10
      01003999H   LINE      CODE     ---       #11
      0100399BH   LINE      CODE     ---       #12
      0100399DH   LINE      CODE     ---       #13
      010039A3H   LINE      CODE     ---       #15
      010039A5H   LINE      CODE     ---       #16
      010039A5H   LINE      CODE     ---       #17
      010039A7H   LINE      CODE     ---       #18
      010039ABH   LINE      CODE     ---       #19
      010039ABH   LINE      CODE     ---       #20
      010039ADH   LINE      CODE     ---       #21
      010039AFH   LINE      CODE     ---       #23
      010039AFH   LINE      CODE     ---       #24
      010039B1H   LINE      CODE     ---       #25
      010039B1H   LINE      CODE     ---       #27
      010039B5H   LINE      CODE     ---       #28
      010039B7H   LINE      CODE     ---       #29
      010039BEH   LINE      CODE     ---       #30
      ---         BLOCKEND  ---      ---       LVL=0

      01003687H   BLOCK     CODE     ---       LVL=0
      01003687H   BLOCK     CODE     NEAR LAB  LVL=1
      0200023EH   SYMBOL    XDATA    BYTE      i
      0200023FH   SYMBOL    XDATA    BYTE      ch
      00000006H   SYMBOL    DATA     BYTE      tmp
      ---         BLOCKEND  ---      ---       LVL=1
      01003687H   LINE      CODE     ---       #32
      01003687H   LINE      CODE     ---       #33
      01003687H   LINE      CODE     ---       #34
      0100368EH   LINE      CODE     ---       #36
      01003692H   LINE      CODE     ---       #37
      01003692H   LINE      CODE     ---       #38
      01003699H   LINE      CODE     ---       #39
      0100369BH   LINE      CODE     ---       #40
      010036A6H   LINE      CODE     ---       #41
LX51 LINKER/LOCATER V4.41                                                             11/18/2015  10:20:10  PAGE 26


      010036A8H   LINE      CODE     ---       #42
      010036ADH   LINE      CODE     ---       #43
      010036B2H   LINE      CODE     ---       #44
      010036B2H   LINE      CODE     ---       #45
      010036B6H   LINE      CODE     ---       #46
      010036B8H   LINE      CODE     ---       #48
      010036B8H   LINE      CODE     ---       #49
      010036BAH   LINE      CODE     ---       #50
      010036BAH   LINE      CODE     ---       #51
      010036C6H   LINE      CODE     ---       #53
      010036CBH   LINE      CODE     ---       #54
      ---         BLOCKEND  ---      ---       LVL=0

      01003B36H   BLOCK     CODE     ---       LVL=0
      020005B5H   SYMBOL    XDATA    BYTE      ch
      01003B3BH   BLOCK     CODE     NEAR LAB  LVL=1
      00000008H   SYMBOL    DATA     BYTE      val
      00000009H   SYMBOL    DATA     BYTE      i
      0000000AH   SYMBOL    DATA     BYTE      j
      0000000BH   SYMBOL    DATA     BYTE      miso
      ---         BLOCKEND  ---      ---       LVL=1
      01003B36H   LINE      CODE     ---       #57
      01003B3BH   LINE      CODE     ---       #58
      01003B3BH   LINE      CODE     ---       #59
      01003B3EH   LINE      CODE     ---       #60
      01003B42H   LINE      CODE     ---       #61
      01003B44H   LINE      CODE     ---       #88
      01003B46H   LINE      CODE     ---       #89
      ---         BLOCKEND  ---      ---       LVL=0

      ---         MODULE    ---      ---       COM
      01000038H   PUBLIC    CODE     ---       soft_reset
      01003A0EH   PUBLIC    CODE     ---       _ad_to_vol
      010038AAH   PUBLIC    CODE     ---       _to_bin
      010037D0H   PUBLIC    CODE     ---       _to_bin2
      010034D9H   PUBLIC    CODE     ---       _check_sum
      02000592H   PUBLIC    XDATA    BYTE      ?_queue_traverse?BYTE
      01003407H   PUBLIC    CODE     ---       _queue_traverse
      01003876H   PUBLIC    CODE     ---       _queue_is_full
      01003AEAH   PUBLIC    CODE     ---       _queue_is_empty
      0200058CH   PUBLIC    XDATA    BYTE      ?_queue_de?BYTE
      01003327H   PUBLIC    CODE     ---       _queue_de
      01003235H   PUBLIC    CODE     ---       _queue_en
      0100002EH   PUBLIC    CODE     ---       _queue_init
      010036CCH   PUBLIC    CODE     ---       _delay_1ms
      01003AABH   PUBLIC    CODE     ---       _delay
      00000080H   SFRSYM    DATA     BYTE      P0
      00000081H   SFRSYM    DATA     BYTE      SP
      00000082H   SFRSYM    DATA     BYTE      DPL
      00000083H   SFRSYM    DATA     BYTE      DPH
      00000084H   SFRSYM    DATA     BYTE      S4CON
      00000085H   SFRSYM    DATA     BYTE      S4BUF
      00000087H   SFRSYM    DATA     BYTE      PCON
      00000088H   SFRSYM    DATA     BYTE      TCON
      00000089H   SFRSYM    DATA     BYTE      TMOD
      0000008AH   SFRSYM    DATA     BYTE      TL0
      0000008BH   SFRSYM    DATA     BYTE      TL1
      0000008CH   SFRSYM    DATA     BYTE      TH0
      0000008DH   SFRSYM    DATA     BYTE      TH1
      0000008EH   SFRSYM    DATA     BYTE      AUXR
      0000008FH   SFRSYM    DATA     BYTE      WAKE_CLKO
      0000008FH   SFRSYM    DATA     BYTE      INT_CLKO
      0000008FH   SFRSYM    DATA     BYTE      AUXR2
      0000008AH   SFRSYM    DATA     BYTE      RL_TL0
      0000008BH   SFRSYM    DATA     BYTE      RL_TL1
LX51 LINKER/LOCATER V4.41                                                             11/18/2015  10:20:10  PAGE 27


      0000008CH   SFRSYM    DATA     BYTE      RL_TH0
      0000008DH   SFRSYM    DATA     BYTE      RL_TH1
      00000090H   SFRSYM    DATA     BYTE      P1
      00000091H   SFRSYM    DATA     BYTE      P1M1
      00000092H   SFRSYM    DATA     BYTE      P1M0
      00000093H   SFRSYM    DATA     BYTE      P0M1
      00000094H   SFRSYM    DATA     BYTE      P0M0
      00000095H   SFRSYM    DATA     BYTE      P2M1
      00000096H   SFRSYM    DATA     BYTE      P2M0
      00000097H   SFRSYM    DATA     BYTE      CLK_DIV
      00000097H   SFRSYM    DATA     BYTE      PCON2
      00000098H   SFRSYM    DATA     BYTE      SCON
      00000099H   SFRSYM    DATA     BYTE      SBUF
      0000009AH   SFRSYM    DATA     BYTE      S2CON
      0000009BH   SFRSYM    DATA     BYTE      S2BUF
      0000009DH   SFRSYM    DATA     BYTE      P1ASF
      000000A0H   SFRSYM    DATA     BYTE      P2
      000000A1H   SFRSYM    DATA     BYTE      BUS_SPEED
      000000A2H   SFRSYM    DATA     BYTE      AUXR1
      000000A2H   SFRSYM    DATA     BYTE      P_SW1
      000000A8H   SFRSYM    DATA     BYTE      IE
      000000A9H   SFRSYM    DATA     BYTE      SADDR
      000000AAH   SFRSYM    DATA     BYTE      WKTCL
      000000ABH   SFRSYM    DATA     BYTE      WKTCH
      000000ACH   SFRSYM    DATA     BYTE      S3CON
      000000ADH   SFRSYM    DATA     BYTE      S3BUF
      000000AFH   SFRSYM    DATA     BYTE      IE2
      000000B0H   SFRSYM    DATA     BYTE      P3
      000000B1H   SFRSYM    DATA     BYTE      P3M1
      000000B2H   SFRSYM    DATA     BYTE      P3M0
      000000B3H   SFRSYM    DATA     BYTE      P4M1
      000000B4H   SFRSYM    DATA     BYTE      P4M0
      000000B5H   SFRSYM    DATA     BYTE      IP2
      000000B6H   SFRSYM    DATA     BYTE      IPH2
      000000B7H   SFRSYM    DATA     BYTE      IPH
      000000B8H   SFRSYM    DATA     BYTE      IP
      000000B9H   SFRSYM    DATA     BYTE      SADEN
      000000BAH   SFRSYM    DATA     BYTE      P_SW2
      000000BCH   SFRSYM    DATA     BYTE      ADC_CONTR
      000000BDH   SFRSYM    DATA     BYTE      ADC_RES
      000000BEH   SFRSYM    DATA     BYTE      ADC_RESL
      000000C0H   SFRSYM    DATA     BYTE      P4
      000000C1H   SFRSYM    DATA     BYTE      WDT_CONTR
      000000C2H   SFRSYM    DATA     BYTE      IAP_DATA
      000000C3H   SFRSYM    DATA     BYTE      IAP_ADDRH
      000000C4H   SFRSYM    DATA     BYTE      IAP_ADDRL
      000000C5H   SFRSYM    DATA     BYTE      IAP_CMD
      000000C6H   SFRSYM    DATA     BYTE      IAP_TRIG
      000000C7H   SFRSYM    DATA     BYTE      IAP_CONTR
      000000C2H   SFRSYM    DATA     BYTE      ISP_DATA
      000000C3H   SFRSYM    DATA     BYTE      ISP_ADDRH
      000000C4H   SFRSYM    DATA     BYTE      ISP_ADDRL
      000000C5H   SFRSYM    DATA     BYTE      ISP_CMD
      000000C6H   SFRSYM    DATA     BYTE      ISP_TRIG
      000000C7H   SFRSYM    DATA     BYTE      ISP_CONTR
      000000C8H   SFRSYM    DATA     BYTE      P5
      000000C9H   SFRSYM    DATA     BYTE      P5M1
      000000CAH   SFRSYM    DATA     BYTE      P5M0
      000000CBH   SFRSYM    DATA     BYTE      P6M1
      000000CCH   SFRSYM    DATA     BYTE      P6M0
      000000CDH   SFRSYM    DATA     BYTE      SPSTAT
      000000CEH   SFRSYM    DATA     BYTE      SPCTL
      000000CFH   SFRSYM    DATA     BYTE      SPDAT
      000000D0H   SFRSYM    DATA     BYTE      PSW
      000000D1H   SFRSYM    DATA     BYTE      T4T3M
LX51 LINKER/LOCATER V4.41                                                             11/18/2015  10:20:10  PAGE 28


      000000D2H   SFRSYM    DATA     BYTE      T4H
      000000D3H   SFRSYM    DATA     BYTE      T4L
      000000D4H   SFRSYM    DATA     BYTE      T3H
      000000D5H   SFRSYM    DATA     BYTE      T3L
      000000D6H   SFRSYM    DATA     BYTE      T2H
      000000D7H   SFRSYM    DATA     BYTE      T2L
      000000D2H   SFRSYM    DATA     BYTE      TH4
      000000D3H   SFRSYM    DATA     BYTE      TL4
      000000D4H   SFRSYM    DATA     BYTE      TH3
      000000D5H   SFRSYM    DATA     BYTE      TL3
      000000D6H   SFRSYM    DATA     BYTE      TH2
      000000D7H   SFRSYM    DATA     BYTE      TL2
      000000D2H   SFRSYM    DATA     BYTE      RL_T4H
      000000D3H   SFRSYM    DATA     BYTE      RL_T4L
      000000D4H   SFRSYM    DATA     BYTE      RL_T3H
      000000D5H   SFRSYM    DATA     BYTE      RL_T3L
      000000D6H   SFRSYM    DATA     BYTE      RL_T2H
      000000D7H   SFRSYM    DATA     BYTE      RL_T2L
      000000D8H   SFRSYM    DATA     BYTE      CCON
      000000D9H   SFRSYM    DATA     BYTE      CMOD
      000000DAH   SFRSYM    DATA     BYTE      CCAPM0
      000000DBH   SFRSYM    DATA     BYTE      CCAPM1
      000000DCH   SFRSYM    DATA     BYTE      CCAPM2
      000000E0H   SFRSYM    DATA     BYTE      ACC
      000000E1H   SFRSYM    DATA     BYTE      P7M1
      000000E2H   SFRSYM    DATA     BYTE      P7M0
      000000E8H   SFRSYM    DATA     BYTE      P6
      000000E9H   SFRSYM    DATA     BYTE      CL
      000000EAH   SFRSYM    DATA     BYTE      CCAP0L
      000000EBH   SFRSYM    DATA     BYTE      CCAP1L
      000000ECH   SFRSYM    DATA     BYTE      CCAP2L
      000000F0H   SFRSYM    DATA     BYTE      B
      000000F2H   SFRSYM    DATA     BYTE      PCA_PWM0
      000000F3H   SFRSYM    DATA     BYTE      PCA_PWM1
      000000F4H   SFRSYM    DATA     BYTE      PCA_PWM2
      000000F8H   SFRSYM    DATA     BYTE      P7
      000000F9H   SFRSYM    DATA     BYTE      CH
      000000FAH   SFRSYM    DATA     BYTE      CCAP0H
      000000FBH   SFRSYM    DATA     BYTE      CCAP1H
      000000FCH   SFRSYM    DATA     BYTE      CCAP2H
      000000D0H.7 SFRSYM    DATA     BIT       CY
      000000D0H.6 SFRSYM    DATA     BIT       AC
      000000D0H.5 SFRSYM    DATA     BIT       F0
      000000D0H.4 SFRSYM    DATA     BIT       RS1
      000000D0H.3 SFRSYM    DATA     BIT       RS0
      000000D0H.2 SFRSYM    DATA     BIT       OV
      000000D0H.1 SFRSYM    DATA     BIT       F1
      000000D0H   SFRSYM    DATA     BIT       P
      00000088H.7 SFRSYM    DATA     BIT       TF1
      00000088H.6 SFRSYM    DATA     BIT       TR1
      00000088H.5 SFRSYM    DATA     BIT       TF0
      00000088H.4 SFRSYM    DATA     BIT       TR0
      00000088H.3 SFRSYM    DATA     BIT       IE1
      00000088H.2 SFRSYM    DATA     BIT       IT1
      00000088H.1 SFRSYM    DATA     BIT       IE0
      00000088H   SFRSYM    DATA     BIT       IT0
      00000080H   SFRSYM    DATA     BIT       P00
      00000080H.1 SFRSYM    DATA     BIT       P01
      00000080H.2 SFRSYM    DATA     BIT       P02
      00000080H.3 SFRSYM    DATA     BIT       P03
      00000080H.4 SFRSYM    DATA     BIT       P04
      00000080H.5 SFRSYM    DATA     BIT       P05
      00000080H.6 SFRSYM    DATA     BIT       P06
      00000080H.7 SFRSYM    DATA     BIT       P07
      00000090H   SFRSYM    DATA     BIT       P10
LX51 LINKER/LOCATER V4.41                                                             11/18/2015  10:20:10  PAGE 29


      00000090H.1 SFRSYM    DATA     BIT       P11
      00000090H.2 SFRSYM    DATA     BIT       P12
      00000090H.3 SFRSYM    DATA     BIT       P13
      00000090H.4 SFRSYM    DATA     BIT       P14
      00000090H.5 SFRSYM    DATA     BIT       P15
      00000090H.6 SFRSYM    DATA     BIT       P16
      00000090H.7 SFRSYM    DATA     BIT       P17
      00000090H   SFRSYM    DATA     BIT       RXD2
      00000090H.1 SFRSYM    DATA     BIT       TXD2
      00000090H   SFRSYM    DATA     BIT       CCP1
      00000090H.1 SFRSYM    DATA     BIT       CCP0
      00000090H.2 SFRSYM    DATA     BIT       SPI_SS
      00000090H.3 SFRSYM    DATA     BIT       SPI_MOSI
      00000090H.4 SFRSYM    DATA     BIT       SPI_MISO
      00000090H.5 SFRSYM    DATA     BIT       SPI_SCLK
      000000A0H.4 SFRSYM    DATA     BIT       SPI_SS_2
      000000A0H.3 SFRSYM    DATA     BIT       SPI_MOSI_2
      000000A0H.2 SFRSYM    DATA     BIT       SPI_MISO_2
      000000A0H.1 SFRSYM    DATA     BIT       SPI_SCLK_2
      000000C8H.4 SFRSYM    DATA     BIT       SPI_SS_3
      000000C0H   SFRSYM    DATA     BIT       SPI_MOSI_3
      000000C0H.1 SFRSYM    DATA     BIT       SPI_MISO_3
      000000C0H.3 SFRSYM    DATA     BIT       SPI_SCLK_3
      000000A0H   SFRSYM    DATA     BIT       P20
      000000A0H.1 SFRSYM    DATA     BIT       P21
      000000A0H.2 SFRSYM    DATA     BIT       P22
      000000A0H.3 SFRSYM    DATA     BIT       P23
      000000A0H.4 SFRSYM    DATA     BIT       P24
      000000A0H.5 SFRSYM    DATA     BIT       P25
      000000A0H.6 SFRSYM    DATA     BIT       P26
      000000A0H.7 SFRSYM    DATA     BIT       P27
      000000B0H   SFRSYM    DATA     BIT       P30
      000000B0H.1 SFRSYM    DATA     BIT       P31
      000000B0H.2 SFRSYM    DATA     BIT       P32
      000000B0H.3 SFRSYM    DATA     BIT       P33
      000000B0H.4 SFRSYM    DATA     BIT       P34
      000000B0H.5 SFRSYM    DATA     BIT       P35
      000000B0H.6 SFRSYM    DATA     BIT       P36
      000000B0H.7 SFRSYM    DATA     BIT       P37
      000000B0H   SFRSYM    DATA     BIT       RXD
      000000B0H.1 SFRSYM    DATA     BIT       TXD
      000000B0H.2 SFRSYM    DATA     BIT       INT0
      000000B0H.3 SFRSYM    DATA     BIT       INT1
      000000B0H.4 SFRSYM    DATA     BIT       T0
      000000B0H.5 SFRSYM    DATA     BIT       T1
      000000B0H.6 SFRSYM    DATA     BIT       WR
      000000B0H.7 SFRSYM    DATA     BIT       RD
      000000B0H.7 SFRSYM    DATA     BIT       CCP2
      000000B0H.5 SFRSYM    DATA     BIT       CLKOUT0
      000000B0H.4 SFRSYM    DATA     BIT       CLKOUT1
      000000C0H   SFRSYM    DATA     BIT       P40
      000000C0H.1 SFRSYM    DATA     BIT       P41
      000000C0H.2 SFRSYM    DATA     BIT       P42
      000000C0H.3 SFRSYM    DATA     BIT       P43
      000000C0H.4 SFRSYM    DATA     BIT       P44
      000000C0H.5 SFRSYM    DATA     BIT       P45
      000000C0H.6 SFRSYM    DATA     BIT       P46
      000000C0H.7 SFRSYM    DATA     BIT       P47
      000000C8H   SFRSYM    DATA     BIT       P50
      000000C8H.1 SFRSYM    DATA     BIT       P51
      000000C8H.2 SFRSYM    DATA     BIT       P52
      000000C8H.3 SFRSYM    DATA     BIT       P53
      000000C8H.4 SFRSYM    DATA     BIT       P54
      000000C8H.5 SFRSYM    DATA     BIT       P55
      000000C8H.6 SFRSYM    DATA     BIT       P56
LX51 LINKER/LOCATER V4.41                                                             11/18/2015  10:20:10  PAGE 30


      000000C8H.7 SFRSYM    DATA     BIT       P57
      00000098H.7 SFRSYM    DATA     BIT       SM0
      00000098H.6 SFRSYM    DATA     BIT       SM1
      00000098H.5 SFRSYM    DATA     BIT       SM2
      00000098H.4 SFRSYM    DATA     BIT       REN
      00000098H.3 SFRSYM    DATA     BIT       TB8
      00000098H.2 SFRSYM    DATA     BIT       RB8
      00000098H.1 SFRSYM    DATA     BIT       TI
      00000098H   SFRSYM    DATA     BIT       RI
      000000A8H.7 SFRSYM    DATA     BIT       EA
      000000A8H.6 SFRSYM    DATA     BIT       ELVD
      000000A8H.5 SFRSYM    DATA     BIT       EADC
      000000A8H.4 SFRSYM    DATA     BIT       ES
      000000A8H.3 SFRSYM    DATA     BIT       ET1
      000000A8H.2 SFRSYM    DATA     BIT       EX1
      000000A8H.1 SFRSYM    DATA     BIT       ET0
      000000A8H   SFRSYM    DATA     BIT       EX0
      000000E0H   SFRSYM    DATA     BIT       ACC0
      000000E0H.1 SFRSYM    DATA     BIT       ACC1
      000000E0H.2 SFRSYM    DATA     BIT       ACC2
      000000E0H.3 SFRSYM    DATA     BIT       ACC3
      000000E0H.4 SFRSYM    DATA     BIT       ACC4
      000000E0H.5 SFRSYM    DATA     BIT       ACC5
      000000E0H.6 SFRSYM    DATA     BIT       ACC6
      000000E0H.7 SFRSYM    DATA     BIT       ACC7
      000000F0H   SFRSYM    DATA     BIT       B0
      000000F0H.1 SFRSYM    DATA     BIT       B1
      000000F0H.2 SFRSYM    DATA     BIT       B2
      000000F0H.3 SFRSYM    DATA     BIT       B3
      000000F0H.4 SFRSYM    DATA     BIT       B4
      000000F0H.5 SFRSYM    DATA     BIT       B5
      000000F0H.6 SFRSYM    DATA     BIT       B6
      000000F0H.7 SFRSYM    DATA     BIT       B7
      000000B8H.7 SFRSYM    DATA     BIT       PPCA
      000000B8H.6 SFRSYM    DATA     BIT       PLVD
      000000B8H.5 SFRSYM    DATA     BIT       PADC
      000000B8H.4 SFRSYM    DATA     BIT       PS
      000000B8H.3 SFRSYM    DATA     BIT       PT1
      000000B8H.2 SFRSYM    DATA     BIT       PX1
      000000B8H.1 SFRSYM    DATA     BIT       PT0
      000000B8H   SFRSYM    DATA     BIT       PX0
      000000D8H   SFRSYM    DATA     BIT       CCF0
      000000D8H.1 SFRSYM    DATA     BIT       CCF1
      000000D8H.2 SFRSYM    DATA     BIT       CCF2
      000000D8H.6 SFRSYM    DATA     BIT       CR
      000000D8H.7 SFRSYM    DATA     BIT       CF

      01003AABH   BLOCK     CODE     ---       LVL=0
      02000240H   SYMBOL    XDATA    DWORD     cnt
      01003AABH   LINE      CODE     ---       #7
      01003AB1H   LINE      CODE     ---       #8
      01003AB1H   LINE      CODE     ---       #9
      01003ABFH   LINE      CODE     ---       #10
      ---         BLOCKEND  ---      ---       LVL=0

      010036CCH   BLOCK     CODE     ---       LVL=0
      0200030DH   SYMBOL    XDATA    DWORD     cnt
      010036CCH   BLOCK     CODE     NEAR LAB  LVL=1
      00000007H   SYMBOL    DATA     BYTE      i
      00000006H   SYMBOL    DATA     BYTE      j
      ---         BLOCKEND  ---      ---       LVL=1
      010036CCH   LINE      CODE     ---       #13
      010036CCH   LINE      CODE     ---       #14
      010036CEH   LINE      CODE     ---       #17
      010036E2H   LINE      CODE     ---       #18
LX51 LINKER/LOCATER V4.41                                                             11/18/2015  10:20:10  PAGE 31


      010036E2H   LINE      CODE     ---       #19
      010036E3H   LINE      CODE     ---       #20
      010036E4H   LINE      CODE     ---       #21
      010036E6H   LINE      CODE     ---       #22
      010036E8H   LINE      CODE     ---       #24
      010036E8H   LINE      CODE     ---       #25
      010036EAH   LINE      CODE     ---       #26
      010036ECH   LINE      CODE     ---       #27
      0100370EH   LINE      CODE     ---       #28
      01003710H   LINE      CODE     ---       #29
      ---         BLOCKEND  ---      ---       LVL=0

      0100002EH   BLOCK     CODE     ---       LVL=0
      00000001H   SYMBOL    DATA     ---       queue
      0100002EH   LINE      CODE     ---       #32
      0100002EH   LINE      CODE     ---       #33
      0100002EH   LINE      CODE     ---       #34
      01000032H   LINE      CODE     ---       #35
      ---         BLOCKEND  ---      ---       LVL=0

      01003235H   BLOCK     CODE     ---       LVL=0
      0200059EH   SYMBOL    XDATA    ---       queue
      020005A1H   SYMBOL    XDATA    BYTE      e
      01003235H   LINE      CODE     ---       #39
      01003245H   LINE      CODE     ---       #40
      01003245H   LINE      CODE     ---       #42
      01003269H   LINE      CODE     ---       #43
      01003269H   LINE      CODE     ---       #44
      0100326CH   LINE      CODE     ---       #45
      0100326CH   LINE      CODE     ---       #47
      0100328BH   LINE      CODE     ---       #48
      010032AEH   LINE      CODE     ---       #50
      010032B0H   LINE      CODE     ---       #51
      ---         BLOCKEND  ---      ---       LVL=0

      01003327H   BLOCK     CODE     ---       LVL=0
      0200058CH   SYMBOL    XDATA    ---       queue
      0200058FH   SYMBOL    XDATA    ---       e
      01003327H   LINE      CODE     ---       #54
      01003332H   LINE      CODE     ---       #55
      01003332H   LINE      CODE     ---       #57
      0100334BH   LINE      CODE     ---       #58
      0100334BH   LINE      CODE     ---       #59
      0100334EH   LINE      CODE     ---       #60
      0100334EH   LINE      CODE     ---       #63
      01003379H   LINE      CODE     ---       #64
      01003398H   LINE      CODE     ---       #66
      0100339AH   LINE      CODE     ---       #67
      ---         BLOCKEND  ---      ---       LVL=0

      01003AEAH   BLOCK     CODE     ---       LVL=0
      00000001H   SYMBOL    DATA     ---       queue
      01003AEAH   LINE      CODE     ---       #69
      01003AEAH   LINE      CODE     ---       #70
      01003AEAH   LINE      CODE     ---       #71
      01003AF7H   LINE      CODE     ---       #72
      01003AF7H   LINE      CODE     ---       #73
      01003AFAH   LINE      CODE     ---       #74
      01003AFAH   LINE      CODE     ---       #76
      01003AFAH   LINE      CODE     ---       #77
      01003AFCH   LINE      CODE     ---       #78
      01003AFCH   LINE      CODE     ---       #79
      ---         BLOCKEND  ---      ---       LVL=0

      01003876H   BLOCK     CODE     ---       LVL=0
LX51 LINKER/LOCATER V4.41                                                             11/18/2015  10:20:10  PAGE 32


      020005A6H   SYMBOL    XDATA    ---       queue
      01003876H   LINE      CODE     ---       #82
      01003881H   LINE      CODE     ---       #83
      01003881H   LINE      CODE     ---       #84
      010038A7H   LINE      CODE     ---       #85
      010038A7H   LINE      CODE     ---       #86
      010038A9H   LINE      CODE     ---       #87
      010038A9H   LINE      CODE     ---       #89
      010038A9H   LINE      CODE     ---       #90
      010038A9H   LINE      CODE     ---       #91
      010038A9H   LINE      CODE     ---       #92
      ---         BLOCKEND  ---      ---       LVL=0

      01003407H   BLOCK     CODE     ---       LVL=0
      02000592H   SYMBOL    XDATA    ---       queue
      02000595H   SYMBOL    XDATA    ---       pd
      01003412H   BLOCK     CODE     NEAR LAB  LVL=1
      00000006H   SYMBOL    DATA     BYTE      p
      ---         BLOCKEND  ---      ---       LVL=1
      01003407H   LINE      CODE     ---       #95
      01003412H   LINE      CODE     ---       #96
      01003412H   LINE      CODE     ---       #97
      01003417H   LINE      CODE     ---       #99
      01003420H   LINE      CODE     ---       #100
      01003420H   LINE      CODE     ---       #101
      01003423H   LINE      CODE     ---       #102
      01003423H   LINE      CODE     ---       #104
      01003437H   LINE      CODE     ---       #105
      01003437H   LINE      CODE     ---       #106
      0100345EH   LINE      CODE     ---       #107
      0100346CH   LINE      CODE     ---       #108
      0100346EH   LINE      CODE     ---       #110
      01003470H   LINE      CODE     ---       #111
      ---         BLOCKEND  ---      ---       LVL=0

      010034D9H   BLOCK     CODE     ---       LVL=0
      02000385H   SYMBOL    XDATA    ---       d
      00000004H   SYMBOL    DATA     BYTE      len
      010034E6H   BLOCK     CODE     NEAR LAB  LVL=1
      02000388H   SYMBOL    XDATA    WORD      sum
      00000007H   SYMBOL    DATA     BYTE      i
      ---         BLOCKEND  ---      ---       LVL=1
      010034D9H   LINE      CODE     ---       #114
      010034E6H   LINE      CODE     ---       #115
      010034E6H   LINE      CODE     ---       #116
      010034EBH   LINE      CODE     ---       #117
      010034ECH   LINE      CODE     ---       #119
      010034F1H   LINE      CODE     ---       #120
      010034F1H   LINE      CODE     ---       #121
      01003512H   LINE      CODE     ---       #122
      0100351AH   LINE      CODE     ---       #123
      0100351AH   LINE      CODE     ---       #124
      01003522H   LINE      CODE     ---       #125
      01003522H   LINE      CODE     ---       #126
      01003525H   LINE      CODE     ---       #128
      01003536H   LINE      CODE     ---       #130
      01003536H   LINE      CODE     ---       #131
      ---         BLOCKEND  ---      ---       LVL=0

      010037D0H   BLOCK     CODE     ---       LVL=0
      020005B2H   SYMBOL    XDATA    BYTE      num
      00000001H   SYMBOL    DATA     ---       d
      010037D5H   BLOCK     CODE     NEAR LAB  LVL=1
      020005B3H   SYMBOL    XDATA    BYTE      i
      ---         BLOCKEND  ---      ---       LVL=1
LX51 LINKER/LOCATER V4.41                                                             11/18/2015  10:20:10  PAGE 33


      010037D0H   LINE      CODE     ---       #141
      010037D5H   LINE      CODE     ---       #142
      010037D5H   LINE      CODE     ---       #145
      010037D8H   LINE      CODE     ---       #146
      010037D8H   LINE      CODE     ---       #147
      01003800H   LINE      CODE     ---       #148
      0100380AH   LINE      CODE     ---       #149
      ---         BLOCKEND  ---      ---       LVL=0

      010038AAH   BLOCK     CODE     ---       LVL=0
      00000007H   SYMBOL    DATA     BYTE      num
      02000330H   SYMBOL    XDATA    ---       d
      010038B5H   BLOCK     CODE     NEAR LAB  LVL=1
      00000006H   SYMBOL    DATA     BYTE      i
      ---         BLOCKEND  ---      ---       LVL=1
      010038AAH   LINE      CODE     ---       #160
      010038B5H   LINE      CODE     ---       #161
      010038B5H   LINE      CODE     ---       #164
      010038B7H   LINE      CODE     ---       #165
      010038B7H   LINE      CODE     ---       #166
      010038D8H   LINE      CODE     ---       #167
      010038DDH   LINE      CODE     ---       #168
      ---         BLOCKEND  ---      ---       LVL=0

      01003A0EH   BLOCK     CODE     ---       LVL=0
      00000002H   SYMBOL    DATA     WORD      ad_val
      01003A12H   BLOCK     CODE     NEAR LAB  LVL=1
      00000004H   SYMBOL    DATA     FLOAT     vol
      ---         BLOCKEND  ---      ---       LVL=1
      01003A0EH   LINE      CODE     ---       #172
      01003A12H   LINE      CODE     ---       #173
      01003A12H   LINE      CODE     ---       #174
      01003A12H   LINE      CODE     ---       #176
      01003A32H   LINE      CODE     ---       #178
      01003A32H   LINE      CODE     ---       #179
      ---         BLOCKEND  ---      ---       LVL=0

      01000038H   BLOCK     CODE     ---       LVL=0
      01000038H   LINE      CODE     ---       #182
      01000038H   LINE      CODE     ---       #183
      01000038H   LINE      CODE     ---       #184
      ---         BLOCKEND  ---      ---       LVL=0

      ---         MODULE    ---      ---       RN8209D
      01003033H   PUBLIC    CODE     ---       rn8209_get_curr1
      0100339BH   PUBLIC    CODE     ---       rn8209_get_curr
      010035E8H   PUBLIC    CODE     ---       rn8209_get_vol
      0200057DH   PUBLIC    XDATA    BYTE      ?_rn8209_write_data?BYTE
      01002E82H   PUBLIC    CODE     ---       _rn8209_write_data
      02000233H   PUBLIC    XDATA    BYTE      ?_rn8209_read_data?BYTE
      01002F24H   PUBLIC    CODE     ---       _rn8209_read_data
      01003A92H   PUBLIC    CODE     ---       rn8209_init
      00000080H   SFRSYM    DATA     BYTE      P0
      00000081H   SFRSYM    DATA     BYTE      SP
      00000082H   SFRSYM    DATA     BYTE      DPL
      00000083H   SFRSYM    DATA     BYTE      DPH
      00000084H   SFRSYM    DATA     BYTE      S4CON
      00000085H   SFRSYM    DATA     BYTE      S4BUF
      00000087H   SFRSYM    DATA     BYTE      PCON
      00000088H   SFRSYM    DATA     BYTE      TCON
      00000089H   SFRSYM    DATA     BYTE      TMOD
      0000008AH   SFRSYM    DATA     BYTE      TL0
      0000008BH   SFRSYM    DATA     BYTE      TL1
      0000008CH   SFRSYM    DATA     BYTE      TH0
      0000008DH   SFRSYM    DATA     BYTE      TH1
LX51 LINKER/LOCATER V4.41                                                             11/18/2015  10:20:10  PAGE 34


      0000008EH   SFRSYM    DATA     BYTE      AUXR
      0000008FH   SFRSYM    DATA     BYTE      WAKE_CLKO
      0000008FH   SFRSYM    DATA     BYTE      INT_CLKO
      0000008FH   SFRSYM    DATA     BYTE      AUXR2
      0000008AH   SFRSYM    DATA     BYTE      RL_TL0
      0000008BH   SFRSYM    DATA     BYTE      RL_TL1
      0000008CH   SFRSYM    DATA     BYTE      RL_TH0
      0000008DH   SFRSYM    DATA     BYTE      RL_TH1
      00000090H   SFRSYM    DATA     BYTE      P1
      00000091H   SFRSYM    DATA     BYTE      P1M1
      00000092H   SFRSYM    DATA     BYTE      P1M0
      00000093H   SFRSYM    DATA     BYTE      P0M1
      00000094H   SFRSYM    DATA     BYTE      P0M0
      00000095H   SFRSYM    DATA     BYTE      P2M1
      00000096H   SFRSYM    DATA     BYTE      P2M0
      00000097H   SFRSYM    DATA     BYTE      CLK_DIV
      00000097H   SFRSYM    DATA     BYTE      PCON2
      00000098H   SFRSYM    DATA     BYTE      SCON
      00000099H   SFRSYM    DATA     BYTE      SBUF
      0000009AH   SFRSYM    DATA     BYTE      S2CON
      0000009BH   SFRSYM    DATA     BYTE      S2BUF
      0000009DH   SFRSYM    DATA     BYTE      P1ASF
      000000A0H   SFRSYM    DATA     BYTE      P2
      000000A1H   SFRSYM    DATA     BYTE      BUS_SPEED
      000000A2H   SFRSYM    DATA     BYTE      AUXR1
      000000A2H   SFRSYM    DATA     BYTE      P_SW1
      000000A8H   SFRSYM    DATA     BYTE      IE
      000000A9H   SFRSYM    DATA     BYTE      SADDR
      000000AAH   SFRSYM    DATA     BYTE      WKTCL
      000000ABH   SFRSYM    DATA     BYTE      WKTCH
      000000ACH   SFRSYM    DATA     BYTE      S3CON
      000000ADH   SFRSYM    DATA     BYTE      S3BUF
      000000AFH   SFRSYM    DATA     BYTE      IE2
      000000B0H   SFRSYM    DATA     BYTE      P3
      000000B1H   SFRSYM    DATA     BYTE      P3M1
      000000B2H   SFRSYM    DATA     BYTE      P3M0
      000000B3H   SFRSYM    DATA     BYTE      P4M1
      000000B4H   SFRSYM    DATA     BYTE      P4M0
      000000B5H   SFRSYM    DATA     BYTE      IP2
      000000B6H   SFRSYM    DATA     BYTE      IPH2
      000000B7H   SFRSYM    DATA     BYTE      IPH
      000000B8H   SFRSYM    DATA     BYTE      IP
      000000B9H   SFRSYM    DATA     BYTE      SADEN
      000000BAH   SFRSYM    DATA     BYTE      P_SW2
      000000BCH   SFRSYM    DATA     BYTE      ADC_CONTR
      000000BDH   SFRSYM    DATA     BYTE      ADC_RES
      000000BEH   SFRSYM    DATA     BYTE      ADC_RESL
      000000C0H   SFRSYM    DATA     BYTE      P4
      000000C1H   SFRSYM    DATA     BYTE      WDT_CONTR
      000000C2H   SFRSYM    DATA     BYTE      IAP_DATA
      000000C3H   SFRSYM    DATA     BYTE      IAP_ADDRH
      000000C4H   SFRSYM    DATA     BYTE      IAP_ADDRL
      000000C5H   SFRSYM    DATA     BYTE      IAP_CMD
      000000C6H   SFRSYM    DATA     BYTE      IAP_TRIG
      000000C7H   SFRSYM    DATA     BYTE      IAP_CONTR
      000000C2H   SFRSYM    DATA     BYTE      ISP_DATA
      000000C3H   SFRSYM    DATA     BYTE      ISP_ADDRH
      000000C4H   SFRSYM    DATA     BYTE      ISP_ADDRL
      000000C5H   SFRSYM    DATA     BYTE      ISP_CMD
      000000C6H   SFRSYM    DATA     BYTE      ISP_TRIG
      000000C7H   SFRSYM    DATA     BYTE      ISP_CONTR
      000000C8H   SFRSYM    DATA     BYTE      P5
      000000C9H   SFRSYM    DATA     BYTE      P5M1
      000000CAH   SFRSYM    DATA     BYTE      P5M0
      000000CBH   SFRSYM    DATA     BYTE      P6M1
LX51 LINKER/LOCATER V4.41                                                             11/18/2015  10:20:10  PAGE 35


      000000CCH   SFRSYM    DATA     BYTE      P6M0
      000000CDH   SFRSYM    DATA     BYTE      SPSTAT
      000000CEH   SFRSYM    DATA     BYTE      SPCTL
      000000CFH   SFRSYM    DATA     BYTE      SPDAT
      000000D0H   SFRSYM    DATA     BYTE      PSW
      000000D1H   SFRSYM    DATA     BYTE      T4T3M
      000000D2H   SFRSYM    DATA     BYTE      T4H
      000000D3H   SFRSYM    DATA     BYTE      T4L
      000000D4H   SFRSYM    DATA     BYTE      T3H
      000000D5H   SFRSYM    DATA     BYTE      T3L
      000000D6H   SFRSYM    DATA     BYTE      T2H
      000000D7H   SFRSYM    DATA     BYTE      T2L
      000000D2H   SFRSYM    DATA     BYTE      TH4
      000000D3H   SFRSYM    DATA     BYTE      TL4
      000000D4H   SFRSYM    DATA     BYTE      TH3
      000000D5H   SFRSYM    DATA     BYTE      TL3
      000000D6H   SFRSYM    DATA     BYTE      TH2
      000000D7H   SFRSYM    DATA     BYTE      TL2
      000000D2H   SFRSYM    DATA     BYTE      RL_T4H
      000000D3H   SFRSYM    DATA     BYTE      RL_T4L
      000000D4H   SFRSYM    DATA     BYTE      RL_T3H
      000000D5H   SFRSYM    DATA     BYTE      RL_T3L
      000000D6H   SFRSYM    DATA     BYTE      RL_T2H
      000000D7H   SFRSYM    DATA     BYTE      RL_T2L
      000000D8H   SFRSYM    DATA     BYTE      CCON
      000000D9H   SFRSYM    DATA     BYTE      CMOD
      000000DAH   SFRSYM    DATA     BYTE      CCAPM0
      000000DBH   SFRSYM    DATA     BYTE      CCAPM1
      000000DCH   SFRSYM    DATA     BYTE      CCAPM2
      000000E0H   SFRSYM    DATA     BYTE      ACC
      000000E1H   SFRSYM    DATA     BYTE      P7M1
      000000E2H   SFRSYM    DATA     BYTE      P7M0
      000000E8H   SFRSYM    DATA     BYTE      P6
      000000E9H   SFRSYM    DATA     BYTE      CL
      000000EAH   SFRSYM    DATA     BYTE      CCAP0L
      000000EBH   SFRSYM    DATA     BYTE      CCAP1L
      000000ECH   SFRSYM    DATA     BYTE      CCAP2L
      000000F0H   SFRSYM    DATA     BYTE      B
      000000F2H   SFRSYM    DATA     BYTE      PCA_PWM0
      000000F3H   SFRSYM    DATA     BYTE      PCA_PWM1
      000000F4H   SFRSYM    DATA     BYTE      PCA_PWM2
      000000F8H   SFRSYM    DATA     BYTE      P7
      000000F9H   SFRSYM    DATA     BYTE      CH
      000000FAH   SFRSYM    DATA     BYTE      CCAP0H
      000000FBH   SFRSYM    DATA     BYTE      CCAP1H
      000000FCH   SFRSYM    DATA     BYTE      CCAP2H
      000000D0H.7 SFRSYM    DATA     BIT       CY
      000000D0H.6 SFRSYM    DATA     BIT       AC
      000000D0H.5 SFRSYM    DATA     BIT       F0
      000000D0H.4 SFRSYM    DATA     BIT       RS1
      000000D0H.3 SFRSYM    DATA     BIT       RS0
      000000D0H.2 SFRSYM    DATA     BIT       OV
      000000D0H.1 SFRSYM    DATA     BIT       F1
      000000D0H   SFRSYM    DATA     BIT       P
      00000088H.7 SFRSYM    DATA     BIT       TF1
      00000088H.6 SFRSYM    DATA     BIT       TR1
      00000088H.5 SFRSYM    DATA     BIT       TF0
      00000088H.4 SFRSYM    DATA     BIT       TR0
      00000088H.3 SFRSYM    DATA     BIT       IE1
      00000088H.2 SFRSYM    DATA     BIT       IT1
      00000088H.1 SFRSYM    DATA     BIT       IE0
      00000088H   SFRSYM    DATA     BIT       IT0
      00000080H   SFRSYM    DATA     BIT       P00
      00000080H.1 SFRSYM    DATA     BIT       P01
      00000080H.2 SFRSYM    DATA     BIT       P02
LX51 LINKER/LOCATER V4.41                                                             11/18/2015  10:20:10  PAGE 36


      00000080H.3 SFRSYM    DATA     BIT       P03
      00000080H.4 SFRSYM    DATA     BIT       P04
      00000080H.5 SFRSYM    DATA     BIT       P05
      00000080H.6 SFRSYM    DATA     BIT       P06
      00000080H.7 SFRSYM    DATA     BIT       P07
      00000090H   SFRSYM    DATA     BIT       P10
      00000090H.1 SFRSYM    DATA     BIT       P11
      00000090H.2 SFRSYM    DATA     BIT       P12
      00000090H.3 SFRSYM    DATA     BIT       P13
      00000090H.4 SFRSYM    DATA     BIT       P14
      00000090H.5 SFRSYM    DATA     BIT       P15
      00000090H.6 SFRSYM    DATA     BIT       P16
      00000090H.7 SFRSYM    DATA     BIT       P17
      00000090H   SFRSYM    DATA     BIT       RXD2
      00000090H.1 SFRSYM    DATA     BIT       TXD2
      00000090H   SFRSYM    DATA     BIT       CCP1
      00000090H.1 SFRSYM    DATA     BIT       CCP0
      00000090H.2 SFRSYM    DATA     BIT       SPI_SS
      00000090H.3 SFRSYM    DATA     BIT       SPI_MOSI
      00000090H.4 SFRSYM    DATA     BIT       SPI_MISO
      00000090H.5 SFRSYM    DATA     BIT       SPI_SCLK
      000000A0H.4 SFRSYM    DATA     BIT       SPI_SS_2
      000000A0H.3 SFRSYM    DATA     BIT       SPI_MOSI_2
      000000A0H.2 SFRSYM    DATA     BIT       SPI_MISO_2
      000000A0H.1 SFRSYM    DATA     BIT       SPI_SCLK_2
      000000C8H.4 SFRSYM    DATA     BIT       SPI_SS_3
      000000C0H   SFRSYM    DATA     BIT       SPI_MOSI_3
      000000C0H.1 SFRSYM    DATA     BIT       SPI_MISO_3
      000000C0H.3 SFRSYM    DATA     BIT       SPI_SCLK_3
      000000A0H   SFRSYM    DATA     BIT       P20
      000000A0H.1 SFRSYM    DATA     BIT       P21
      000000A0H.2 SFRSYM    DATA     BIT       P22
      000000A0H.3 SFRSYM    DATA     BIT       P23
      000000A0H.4 SFRSYM    DATA     BIT       P24
      000000A0H.5 SFRSYM    DATA     BIT       P25
      000000A0H.6 SFRSYM    DATA     BIT       P26
      000000A0H.7 SFRSYM    DATA     BIT       P27
      000000B0H   SFRSYM    DATA     BIT       P30
      000000B0H.1 SFRSYM    DATA     BIT       P31
      000000B0H.2 SFRSYM    DATA     BIT       P32
      000000B0H.3 SFRSYM    DATA     BIT       P33
      000000B0H.4 SFRSYM    DATA     BIT       P34
      000000B0H.5 SFRSYM    DATA     BIT       P35
      000000B0H.6 SFRSYM    DATA     BIT       P36
      000000B0H.7 SFRSYM    DATA     BIT       P37
      000000B0H   SFRSYM    DATA     BIT       RXD
      000000B0H.1 SFRSYM    DATA     BIT       TXD
      000000B0H.2 SFRSYM    DATA     BIT       INT0
      000000B0H.3 SFRSYM    DATA     BIT       INT1
      000000B0H.4 SFRSYM    DATA     BIT       T0
      000000B0H.5 SFRSYM    DATA     BIT       T1
      000000B0H.6 SFRSYM    DATA     BIT       WR
      000000B0H.7 SFRSYM    DATA     BIT       RD
      000000B0H.7 SFRSYM    DATA     BIT       CCP2
      000000B0H.5 SFRSYM    DATA     BIT       CLKOUT0
      000000B0H.4 SFRSYM    DATA     BIT       CLKOUT1
      000000C0H   SFRSYM    DATA     BIT       P40
      000000C0H.1 SFRSYM    DATA     BIT       P41
      000000C0H.2 SFRSYM    DATA     BIT       P42
      000000C0H.3 SFRSYM    DATA     BIT       P43
      000000C0H.4 SFRSYM    DATA     BIT       P44
      000000C0H.5 SFRSYM    DATA     BIT       P45
      000000C0H.6 SFRSYM    DATA     BIT       P46
      000000C0H.7 SFRSYM    DATA     BIT       P47
      000000C8H   SFRSYM    DATA     BIT       P50
LX51 LINKER/LOCATER V4.41                                                             11/18/2015  10:20:10  PAGE 37


      000000C8H.1 SFRSYM    DATA     BIT       P51
      000000C8H.2 SFRSYM    DATA     BIT       P52
      000000C8H.3 SFRSYM    DATA     BIT       P53
      000000C8H.4 SFRSYM    DATA     BIT       P54
      000000C8H.5 SFRSYM    DATA     BIT       P55
      000000C8H.6 SFRSYM    DATA     BIT       P56
      000000C8H.7 SFRSYM    DATA     BIT       P57
      00000098H.7 SFRSYM    DATA     BIT       SM0
      00000098H.6 SFRSYM    DATA     BIT       SM1
      00000098H.5 SFRSYM    DATA     BIT       SM2
      00000098H.4 SFRSYM    DATA     BIT       REN
      00000098H.3 SFRSYM    DATA     BIT       TB8
      00000098H.2 SFRSYM    DATA     BIT       RB8
      00000098H.1 SFRSYM    DATA     BIT       TI
      00000098H   SFRSYM    DATA     BIT       RI
      000000A8H.7 SFRSYM    DATA     BIT       EA
      000000A8H.6 SFRSYM    DATA     BIT       ELVD
      000000A8H.5 SFRSYM    DATA     BIT       EADC
      000000A8H.4 SFRSYM    DATA     BIT       ES
      000000A8H.3 SFRSYM    DATA     BIT       ET1
      000000A8H.2 SFRSYM    DATA     BIT       EX1
      000000A8H.1 SFRSYM    DATA     BIT       ET0
      000000A8H   SFRSYM    DATA     BIT       EX0
      000000E0H   SFRSYM    DATA     BIT       ACC0
      000000E0H.1 SFRSYM    DATA     BIT       ACC1
      000000E0H.2 SFRSYM    DATA     BIT       ACC2
      000000E0H.3 SFRSYM    DATA     BIT       ACC3
      000000E0H.4 SFRSYM    DATA     BIT       ACC4
      000000E0H.5 SFRSYM    DATA     BIT       ACC5
      000000E0H.6 SFRSYM    DATA     BIT       ACC6
      000000E0H.7 SFRSYM    DATA     BIT       ACC7
      000000F0H   SFRSYM    DATA     BIT       B0
      000000F0H.1 SFRSYM    DATA     BIT       B1
      000000F0H.2 SFRSYM    DATA     BIT       B2
      000000F0H.3 SFRSYM    DATA     BIT       B3
      000000F0H.4 SFRSYM    DATA     BIT       B4
      000000F0H.5 SFRSYM    DATA     BIT       B5
      000000F0H.6 SFRSYM    DATA     BIT       B6
      000000F0H.7 SFRSYM    DATA     BIT       B7
      000000B8H.7 SFRSYM    DATA     BIT       PPCA
      000000B8H.6 SFRSYM    DATA     BIT       PLVD
      000000B8H.5 SFRSYM    DATA     BIT       PADC
      000000B8H.4 SFRSYM    DATA     BIT       PS
      000000B8H.3 SFRSYM    DATA     BIT       PT1
      000000B8H.2 SFRSYM    DATA     BIT       PX1
      000000B8H.1 SFRSYM    DATA     BIT       PT0
      000000B8H   SFRSYM    DATA     BIT       PX0
      000000D8H   SFRSYM    DATA     BIT       CCF0
      000000D8H.1 SFRSYM    DATA     BIT       CCF1
      000000D8H.2 SFRSYM    DATA     BIT       CCF2
      000000D8H.6 SFRSYM    DATA     BIT       CR
      000000D8H.7 SFRSYM    DATA     BIT       CF
      01003C8EH   SYMBOL    CONST    ---       _?ix1000
      01003C93H   SYMBOL    CONST    ---       _?ix1001
      01003C95H   SYMBOL    CONST    ---       _?ix1002
      01003C98H   SYMBOL    CONST    ---       _?ix1003
      01003C9BH   SYMBOL    CONST    ---       _?ix1004

      01003A92H   BLOCK     CODE     ---       LVL=0
      01003A92H   LINE      CODE     ---       #10
      01003A92H   LINE      CODE     ---       #11
      01003A92H   LINE      CODE     ---       #12
      01003A94H   LINE      CODE     ---       #16
      01003A99H   LINE      CODE     ---       #17
      01003A9EH   LINE      CODE     ---       #19
LX51 LINKER/LOCATER V4.41                                                             11/18/2015  10:20:10  PAGE 38


      01003AA3H   LINE      CODE     ---       #20
      01003AA8H   LINE      CODE     ---       #29
      01003AAAH   LINE      CODE     ---       #30
      ---         BLOCKEND  ---      ---       LVL=0

      01002F1AH   BLOCK     CODE     VOID      LVL=0
      ---         BLOCKEND  ---      ---       LVL=0

      01002F24H   BLOCK     CODE     ---       LVL=0
      02000233H   SYMBOL    XDATA    BYTE      addr
      02000234H   SYMBOL    XDATA    ---       dat
      02000237H   SYMBOL    XDATA    BYTE      len
      02000238H   SYMBOL    XDATA    BYTE      i
      02000239H   SYMBOL    XDATA    ---       tmp
      01002F32H   BLOCK     CODE     NEAR LAB  LVL=1
      02000238H   SYMBOL    XDATA    BYTE      i
      02000239H   SYMBOL    XDATA    ---       tmp
      ---         BLOCKEND  ---      ---       LVL=1
      01002F24H   LINE      CODE     ---       #32
      01002F32H   LINE      CODE     ---       #33
      01002F32H   LINE      CODE     ---       #34
      01002F37H   LINE      CODE     ---       #35
      01002F49H   LINE      CODE     ---       #36
      01002F4BH   LINE      CODE     ---       #38
      01002F53H   LINE      CODE     ---       #39
      01002F5BH   LINE      CODE     ---       #41
      01002F6BH   LINE      CODE     ---       #42
      01002F6BH   LINE      CODE     ---       #43
      01002F87H   LINE      CODE     ---       #44
      01002F9CH   LINE      CODE     ---       #45
      01002FA4H   LINE      CODE     ---       #47
      01002FA6H   LINE      CODE     ---       #48
      ---         BLOCKEND  ---      ---       LVL=0

      01002E82H   BLOCK     CODE     ---       LVL=0
      0200057DH   SYMBOL    XDATA    BYTE      addr
      0200057EH   SYMBOL    XDATA    ---       dat
      02000581H   SYMBOL    XDATA    BYTE      len
      01002E90H   BLOCK     CODE     NEAR LAB  LVL=1
      02000582H   SYMBOL    XDATA    BYTE      i
      02000583H   SYMBOL    XDATA    ---       tmp
      ---         BLOCKEND  ---      ---       LVL=1
      01002E82H   LINE      CODE     ---       #52
      01002E90H   LINE      CODE     ---       #53
      01002E90H   LINE      CODE     ---       #54
      01002EA7H   LINE      CODE     ---       #55
      01002EA9H   LINE      CODE     ---       #57
      01002EAFH   LINE      CODE     ---       #58
      01002EB3H   LINE      CODE     ---       #60
      01002EBBH   LINE      CODE     ---       #61
      01002EC3H   LINE      CODE     ---       #63
      01002ECDH   LINE      CODE     ---       #65
      01002EDEH   LINE      CODE     ---       #66
      01002EDEH   LINE      CODE     ---       #67
      01002EF5H   LINE      CODE     ---       #68
      01002EFDH   LINE      CODE     ---       #70
      01002F03H   LINE      CODE     ---       #71
      01002F07H   LINE      CODE     ---       #72
      01002F0FH   LINE      CODE     ---       #73
      01002F17H   LINE      CODE     ---       #75
      01002F19H   LINE      CODE     ---       #76
      ---         BLOCKEND  ---      ---       LVL=0

      010035E8H   BLOCK     CODE     ---       LVL=0
      010035E8H   BLOCK     CODE     NEAR LAB  LVL=1
LX51 LINKER/LOCATER V4.41                                                             11/18/2015  10:20:10  PAGE 39


      00000006H   SYMBOL    DATA     WORD      tmp
      02000229H   SYMBOL    XDATA    ---       dat
      0200022CH   SYMBOL    XDATA    BYTE      test
      00000004H   SYMBOL    DATA     WORD      vol_val
      ---         BLOCKEND  ---      ---       LVL=1
      010035E8H   LINE      CODE     ---       #80
      010035E8H   LINE      CODE     ---       #81
      010035E8H   LINE      CODE     ---       #82
      010035EAH   LINE      CODE     ---       #83
      01003600H   LINE      CODE     ---       #84
      01003602H   LINE      CODE     ---       #86
      01003613H   LINE      CODE     ---       #87
      01003617H   LINE      CODE     ---       #88
      01003622H   LINE      CODE     ---       #90
      01003637H   LINE      CODE     ---       #92
      01003637H   LINE      CODE     ---       #93
      ---         BLOCKEND  ---      ---       LVL=0

      0100339BH   BLOCK     CODE     ---       LVL=0
      0100339BH   BLOCK     CODE     NEAR LAB  LVL=1
      0200022FH   SYMBOL    XDATA    ---       dat
      02000232H   SYMBOL    XDATA    BYTE      test
      00000004H   SYMBOL    DATA     DWORD     curr_val
      ---         BLOCKEND  ---      ---       LVL=1
      0100339BH   LINE      CODE     ---       #97
      0100339BH   LINE      CODE     ---       #98
      0100339BH   LINE      CODE     ---       #99
      010033B3H   LINE      CODE     ---       #100
      010033B6H   LINE      CODE     ---       #102
      010033BDH   LINE      CODE     ---       #104
      010033C6H   LINE      CODE     ---       #105
      010033E6H   LINE      CODE     ---       #106
      01003406H   LINE      CODE     ---       #108
      01003406H   LINE      CODE     ---       #109
      ---         BLOCKEND  ---      ---       LVL=0

      01003033H   BLOCK     CODE     ---       LVL=0
      01003033H   BLOCK     CODE     NEAR LAB  LVL=1
      0200056BH   SYMBOL    XDATA    WORD      tmp
      0200056DH   SYMBOL    XDATA    ---       dat
      00000007H   SYMBOL    DATA     BYTE      test
      02000570H   SYMBOL    XDATA    FLOAT     curr_val
      ---         BLOCKEND  ---      ---       LVL=1
      01003033H   LINE      CODE     ---       #113
      01003033H   LINE      CODE     ---       #114
      01003033H   LINE      CODE     ---       #115
      0100303AH   LINE      CODE     ---       #116
      0100304EH   LINE      CODE     ---       #117
      01003058H   LINE      CODE     ---       #119
      0100305FH   LINE      CODE     ---       #122
      0100306CH   LINE      CODE     ---       #123
      01003081H   LINE      CODE     ---       #125
      01003099H   LINE      CODE     ---       #127
      0100309EH   LINE      CODE     ---       #128
      010030A3H   LINE      CODE     ---       #129
      010030A6H   LINE      CODE     ---       #130
      010030ACH   LINE      CODE     ---       #131
      010030AFH   LINE      CODE     ---       #133
      010030BDH   LINE      CODE     ---       #134
      ---         BLOCKEND  ---      ---       LVL=0

      ---         MODULE    ---      ---       TIMERHL
      02000463H   PUBLIC    XDATA    ---       time_lamp_off_checking_sec
      02000453H   PUBLIC    XDATA    ---       time_lamp_on_checking_sec
      0200044FH   PUBLIC    XDATA    DWORD     time_saving_sec
LX51 LINKER/LOCATER V4.41                                                             11/18/2015  10:20:10  PAGE 40


      0200043FH   PUBLIC    XDATA    ---       time_lamp_off_sec
      0200042FH   PUBLIC    XDATA    ---       time_lamp_on_sec
      02000406H   PUBLIC    XDATA    ---       g_time_cnt
      01002411H   PUBLIC    CODE     ---       timer0_int
      01000003H   PUBLIC    CODE     ---       time_init
      0100001AH   PUBLIC    CODE     ---       timer_hour
      0100000AH   PUBLIC    CODE     ---       timer_min
      01001394H   PUBLIC    CODE     ---       timer_sec
      01000009H   PUBLIC    CODE     ---       timer_ms
      00000080H   SFRSYM    DATA     BYTE      P0
      00000081H   SFRSYM    DATA     BYTE      SP
      00000082H   SFRSYM    DATA     BYTE      DPL
      00000083H   SFRSYM    DATA     BYTE      DPH
      00000084H   SFRSYM    DATA     BYTE      S4CON
      00000085H   SFRSYM    DATA     BYTE      S4BUF
      00000087H   SFRSYM    DATA     BYTE      PCON
      00000088H   SFRSYM    DATA     BYTE      TCON
      00000089H   SFRSYM    DATA     BYTE      TMOD
      0000008AH   SFRSYM    DATA     BYTE      TL0
      0000008BH   SFRSYM    DATA     BYTE      TL1
      0000008CH   SFRSYM    DATA     BYTE      TH0
      0000008DH   SFRSYM    DATA     BYTE      TH1
      0000008EH   SFRSYM    DATA     BYTE      AUXR
      0000008FH   SFRSYM    DATA     BYTE      WAKE_CLKO
      0000008FH   SFRSYM    DATA     BYTE      INT_CLKO
      0000008FH   SFRSYM    DATA     BYTE      AUXR2
      0000008AH   SFRSYM    DATA     BYTE      RL_TL0
      0000008BH   SFRSYM    DATA     BYTE      RL_TL1
      0000008CH   SFRSYM    DATA     BYTE      RL_TH0
      0000008DH   SFRSYM    DATA     BYTE      RL_TH1
      00000090H   SFRSYM    DATA     BYTE      P1
      00000091H   SFRSYM    DATA     BYTE      P1M1
      00000092H   SFRSYM    DATA     BYTE      P1M0
      00000093H   SFRSYM    DATA     BYTE      P0M1
      00000094H   SFRSYM    DATA     BYTE      P0M0
      00000095H   SFRSYM    DATA     BYTE      P2M1
      00000096H   SFRSYM    DATA     BYTE      P2M0
      00000097H   SFRSYM    DATA     BYTE      CLK_DIV
      00000097H   SFRSYM    DATA     BYTE      PCON2
      00000098H   SFRSYM    DATA     BYTE      SCON
      00000099H   SFRSYM    DATA     BYTE      SBUF
      0000009AH   SFRSYM    DATA     BYTE      S2CON
      0000009BH   SFRSYM    DATA     BYTE      S2BUF
      0000009DH   SFRSYM    DATA     BYTE      P1ASF
      000000A0H   SFRSYM    DATA     BYTE      P2
      000000A1H   SFRSYM    DATA     BYTE      BUS_SPEED
      000000A2H   SFRSYM    DATA     BYTE      AUXR1
      000000A2H   SFRSYM    DATA     BYTE      P_SW1
      000000A8H   SFRSYM    DATA     BYTE      IE
      000000A9H   SFRSYM    DATA     BYTE      SADDR
      000000AAH   SFRSYM    DATA     BYTE      WKTCL
      000000ABH   SFRSYM    DATA     BYTE      WKTCH
      000000ACH   SFRSYM    DATA     BYTE      S3CON
      000000ADH   SFRSYM    DATA     BYTE      S3BUF
      000000AFH   SFRSYM    DATA     BYTE      IE2
      000000B0H   SFRSYM    DATA     BYTE      P3
      000000B1H   SFRSYM    DATA     BYTE      P3M1
      000000B2H   SFRSYM    DATA     BYTE      P3M0
      000000B3H   SFRSYM    DATA     BYTE      P4M1
      000000B4H   SFRSYM    DATA     BYTE      P4M0
      000000B5H   SFRSYM    DATA     BYTE      IP2
      000000B6H   SFRSYM    DATA     BYTE      IPH2
      000000B7H   SFRSYM    DATA     BYTE      IPH
      000000B8H   SFRSYM    DATA     BYTE      IP
      000000B9H   SFRSYM    DATA     BYTE      SADEN
LX51 LINKER/LOCATER V4.41                                                             11/18/2015  10:20:10  PAGE 41


      000000BAH   SFRSYM    DATA     BYTE      P_SW2
      000000BCH   SFRSYM    DATA     BYTE      ADC_CONTR
      000000BDH   SFRSYM    DATA     BYTE      ADC_RES
      000000BEH   SFRSYM    DATA     BYTE      ADC_RESL
      000000C0H   SFRSYM    DATA     BYTE      P4
      000000C1H   SFRSYM    DATA     BYTE      WDT_CONTR
      000000C2H   SFRSYM    DATA     BYTE      IAP_DATA
      000000C3H   SFRSYM    DATA     BYTE      IAP_ADDRH
      000000C4H   SFRSYM    DATA     BYTE      IAP_ADDRL
      000000C5H   SFRSYM    DATA     BYTE      IAP_CMD
      000000C6H   SFRSYM    DATA     BYTE      IAP_TRIG
      000000C7H   SFRSYM    DATA     BYTE      IAP_CONTR
      000000C2H   SFRSYM    DATA     BYTE      ISP_DATA
      000000C3H   SFRSYM    DATA     BYTE      ISP_ADDRH
      000000C4H   SFRSYM    DATA     BYTE      ISP_ADDRL
      000000C5H   SFRSYM    DATA     BYTE      ISP_CMD
      000000C6H   SFRSYM    DATA     BYTE      ISP_TRIG
      000000C7H   SFRSYM    DATA     BYTE      ISP_CONTR
      000000C8H   SFRSYM    DATA     BYTE      P5
      000000C9H   SFRSYM    DATA     BYTE      P5M1
      000000CAH   SFRSYM    DATA     BYTE      P5M0
      000000CBH   SFRSYM    DATA     BYTE      P6M1
      000000CCH   SFRSYM    DATA     BYTE      P6M0
      000000CDH   SFRSYM    DATA     BYTE      SPSTAT
      000000CEH   SFRSYM    DATA     BYTE      SPCTL
      000000CFH   SFRSYM    DATA     BYTE      SPDAT
      000000D0H   SFRSYM    DATA     BYTE      PSW
      000000D1H   SFRSYM    DATA     BYTE      T4T3M
      000000D2H   SFRSYM    DATA     BYTE      T4H
      000000D3H   SFRSYM    DATA     BYTE      T4L
      000000D4H   SFRSYM    DATA     BYTE      T3H
      000000D5H   SFRSYM    DATA     BYTE      T3L
      000000D6H   SFRSYM    DATA     BYTE      T2H
      000000D7H   SFRSYM    DATA     BYTE      T2L
      000000D2H   SFRSYM    DATA     BYTE      TH4
      000000D3H   SFRSYM    DATA     BYTE      TL4
      000000D4H   SFRSYM    DATA     BYTE      TH3
      000000D5H   SFRSYM    DATA     BYTE      TL3
      000000D6H   SFRSYM    DATA     BYTE      TH2
      000000D7H   SFRSYM    DATA     BYTE      TL2
      000000D2H   SFRSYM    DATA     BYTE      RL_T4H
      000000D3H   SFRSYM    DATA     BYTE      RL_T4L
      000000D4H   SFRSYM    DATA     BYTE      RL_T3H
      000000D5H   SFRSYM    DATA     BYTE      RL_T3L
      000000D6H   SFRSYM    DATA     BYTE      RL_T2H
      000000D7H   SFRSYM    DATA     BYTE      RL_T2L
      000000D8H   SFRSYM    DATA     BYTE      CCON
      000000D9H   SFRSYM    DATA     BYTE      CMOD
      000000DAH   SFRSYM    DATA     BYTE      CCAPM0
      000000DBH   SFRSYM    DATA     BYTE      CCAPM1
      000000DCH   SFRSYM    DATA     BYTE      CCAPM2
      000000E0H   SFRSYM    DATA     BYTE      ACC
      000000E1H   SFRSYM    DATA     BYTE      P7M1
      000000E2H   SFRSYM    DATA     BYTE      P7M0
      000000E8H   SFRSYM    DATA     BYTE      P6
      000000E9H   SFRSYM    DATA     BYTE      CL
      000000EAH   SFRSYM    DATA     BYTE      CCAP0L
      000000EBH   SFRSYM    DATA     BYTE      CCAP1L
      000000ECH   SFRSYM    DATA     BYTE      CCAP2L
      000000F0H   SFRSYM    DATA     BYTE      B
      000000F2H   SFRSYM    DATA     BYTE      PCA_PWM0
      000000F3H   SFRSYM    DATA     BYTE      PCA_PWM1
      000000F4H   SFRSYM    DATA     BYTE      PCA_PWM2
      000000F8H   SFRSYM    DATA     BYTE      P7
      000000F9H   SFRSYM    DATA     BYTE      CH
LX51 LINKER/LOCATER V4.41                                                             11/18/2015  10:20:10  PAGE 42


      000000FAH   SFRSYM    DATA     BYTE      CCAP0H
      000000FBH   SFRSYM    DATA     BYTE      CCAP1H
      000000FCH   SFRSYM    DATA     BYTE      CCAP2H
      000000D0H.7 SFRSYM    DATA     BIT       CY
      000000D0H.6 SFRSYM    DATA     BIT       AC
      000000D0H.5 SFRSYM    DATA     BIT       F0
      000000D0H.4 SFRSYM    DATA     BIT       RS1
      000000D0H.3 SFRSYM    DATA     BIT       RS0
      000000D0H.2 SFRSYM    DATA     BIT       OV
      000000D0H.1 SFRSYM    DATA     BIT       F1
      000000D0H   SFRSYM    DATA     BIT       P
      00000088H.7 SFRSYM    DATA     BIT       TF1
      00000088H.6 SFRSYM    DATA     BIT       TR1
      00000088H.5 SFRSYM    DATA     BIT       TF0
      00000088H.4 SFRSYM    DATA     BIT       TR0
      00000088H.3 SFRSYM    DATA     BIT       IE1
      00000088H.2 SFRSYM    DATA     BIT       IT1
      00000088H.1 SFRSYM    DATA     BIT       IE0
      00000088H   SFRSYM    DATA     BIT       IT0
      00000080H   SFRSYM    DATA     BIT       P00
      00000080H.1 SFRSYM    DATA     BIT       P01
      00000080H.2 SFRSYM    DATA     BIT       P02
      00000080H.3 SFRSYM    DATA     BIT       P03
      00000080H.4 SFRSYM    DATA     BIT       P04
      00000080H.5 SFRSYM    DATA     BIT       P05
      00000080H.6 SFRSYM    DATA     BIT       P06
      00000080H.7 SFRSYM    DATA     BIT       P07
      00000090H   SFRSYM    DATA     BIT       P10
      00000090H.1 SFRSYM    DATA     BIT       P11
      00000090H.2 SFRSYM    DATA     BIT       P12
      00000090H.3 SFRSYM    DATA     BIT       P13
      00000090H.4 SFRSYM    DATA     BIT       P14
      00000090H.5 SFRSYM    DATA     BIT       P15
      00000090H.6 SFRSYM    DATA     BIT       P16
      00000090H.7 SFRSYM    DATA     BIT       P17
      00000090H   SFRSYM    DATA     BIT       RXD2
      00000090H.1 SFRSYM    DATA     BIT       TXD2
      00000090H   SFRSYM    DATA     BIT       CCP1
      00000090H.1 SFRSYM    DATA     BIT       CCP0
      00000090H.2 SFRSYM    DATA     BIT       SPI_SS
      00000090H.3 SFRSYM    DATA     BIT       SPI_MOSI
      00000090H.4 SFRSYM    DATA     BIT       SPI_MISO
      00000090H.5 SFRSYM    DATA     BIT       SPI_SCLK
      000000A0H.4 SFRSYM    DATA     BIT       SPI_SS_2
      000000A0H.3 SFRSYM    DATA     BIT       SPI_MOSI_2
      000000A0H.2 SFRSYM    DATA     BIT       SPI_MISO_2
      000000A0H.1 SFRSYM    DATA     BIT       SPI_SCLK_2
      000000C8H.4 SFRSYM    DATA     BIT       SPI_SS_3
      000000C0H   SFRSYM    DATA     BIT       SPI_MOSI_3
      000000C0H.1 SFRSYM    DATA     BIT       SPI_MISO_3
      000000C0H.3 SFRSYM    DATA     BIT       SPI_SCLK_3
      000000A0H   SFRSYM    DATA     BIT       P20
      000000A0H.1 SFRSYM    DATA     BIT       P21
      000000A0H.2 SFRSYM    DATA     BIT       P22
      000000A0H.3 SFRSYM    DATA     BIT       P23
      000000A0H.4 SFRSYM    DATA     BIT       P24
      000000A0H.5 SFRSYM    DATA     BIT       P25
      000000A0H.6 SFRSYM    DATA     BIT       P26
      000000A0H.7 SFRSYM    DATA     BIT       P27
      000000B0H   SFRSYM    DATA     BIT       P30
      000000B0H.1 SFRSYM    DATA     BIT       P31
      000000B0H.2 SFRSYM    DATA     BIT       P32
      000000B0H.3 SFRSYM    DATA     BIT       P33
      000000B0H.4 SFRSYM    DATA     BIT       P34
      000000B0H.5 SFRSYM    DATA     BIT       P35
LX51 LINKER/LOCATER V4.41                                                             11/18/2015  10:20:10  PAGE 43


      000000B0H.6 SFRSYM    DATA     BIT       P36
      000000B0H.7 SFRSYM    DATA     BIT       P37
      000000B0H   SFRSYM    DATA     BIT       RXD
      000000B0H.1 SFRSYM    DATA     BIT       TXD
      000000B0H.2 SFRSYM    DATA     BIT       INT0
      000000B0H.3 SFRSYM    DATA     BIT       INT1
      000000B0H.4 SFRSYM    DATA     BIT       T0
      000000B0H.5 SFRSYM    DATA     BIT       T1
      000000B0H.6 SFRSYM    DATA     BIT       WR
      000000B0H.7 SFRSYM    DATA     BIT       RD
      000000B0H.7 SFRSYM    DATA     BIT       CCP2
      000000B0H.5 SFRSYM    DATA     BIT       CLKOUT0
      000000B0H.4 SFRSYM    DATA     BIT       CLKOUT1
      000000C0H   SFRSYM    DATA     BIT       P40
      000000C0H.1 SFRSYM    DATA     BIT       P41
      000000C0H.2 SFRSYM    DATA     BIT       P42
      000000C0H.3 SFRSYM    DATA     BIT       P43
      000000C0H.4 SFRSYM    DATA     BIT       P44
      000000C0H.5 SFRSYM    DATA     BIT       P45
      000000C0H.6 SFRSYM    DATA     BIT       P46
      000000C0H.7 SFRSYM    DATA     BIT       P47
      000000C8H   SFRSYM    DATA     BIT       P50
      000000C8H.1 SFRSYM    DATA     BIT       P51
      000000C8H.2 SFRSYM    DATA     BIT       P52
      000000C8H.3 SFRSYM    DATA     BIT       P53
      000000C8H.4 SFRSYM    DATA     BIT       P54
      000000C8H.5 SFRSYM    DATA     BIT       P55
      000000C8H.6 SFRSYM    DATA     BIT       P56
      000000C8H.7 SFRSYM    DATA     BIT       P57
      00000098H.7 SFRSYM    DATA     BIT       SM0
      00000098H.6 SFRSYM    DATA     BIT       SM1
      00000098H.5 SFRSYM    DATA     BIT       SM2
      00000098H.4 SFRSYM    DATA     BIT       REN
      00000098H.3 SFRSYM    DATA     BIT       TB8
      00000098H.2 SFRSYM    DATA     BIT       RB8
      00000098H.1 SFRSYM    DATA     BIT       TI
      00000098H   SFRSYM    DATA     BIT       RI
      000000A8H.7 SFRSYM    DATA     BIT       EA
      000000A8H.6 SFRSYM    DATA     BIT       ELVD
      000000A8H.5 SFRSYM    DATA     BIT       EADC
      000000A8H.4 SFRSYM    DATA     BIT       ES
      000000A8H.3 SFRSYM    DATA     BIT       ET1
      000000A8H.2 SFRSYM    DATA     BIT       EX1
      000000A8H.1 SFRSYM    DATA     BIT       ET0
      000000A8H   SFRSYM    DATA     BIT       EX0
      000000E0H   SFRSYM    DATA     BIT       ACC0
      000000E0H.1 SFRSYM    DATA     BIT       ACC1
      000000E0H.2 SFRSYM    DATA     BIT       ACC2
      000000E0H.3 SFRSYM    DATA     BIT       ACC3
      000000E0H.4 SFRSYM    DATA     BIT       ACC4
      000000E0H.5 SFRSYM    DATA     BIT       ACC5
      000000E0H.6 SFRSYM    DATA     BIT       ACC6
      000000E0H.7 SFRSYM    DATA     BIT       ACC7
      000000F0H   SFRSYM    DATA     BIT       B0
      000000F0H.1 SFRSYM    DATA     BIT       B1
      000000F0H.2 SFRSYM    DATA     BIT       B2
      000000F0H.3 SFRSYM    DATA     BIT       B3
      000000F0H.4 SFRSYM    DATA     BIT       B4
      000000F0H.5 SFRSYM    DATA     BIT       B5
      000000F0H.6 SFRSYM    DATA     BIT       B6
      000000F0H.7 SFRSYM    DATA     BIT       B7
      000000B8H.7 SFRSYM    DATA     BIT       PPCA
      000000B8H.6 SFRSYM    DATA     BIT       PLVD
      000000B8H.5 SFRSYM    DATA     BIT       PADC
      000000B8H.4 SFRSYM    DATA     BIT       PS
LX51 LINKER/LOCATER V4.41                                                             11/18/2015  10:20:10  PAGE 44


      000000B8H.3 SFRSYM    DATA     BIT       PT1
      000000B8H.2 SFRSYM    DATA     BIT       PX1
      000000B8H.1 SFRSYM    DATA     BIT       PT0
      000000B8H   SFRSYM    DATA     BIT       PX0
      000000D8H   SFRSYM    DATA     BIT       CCF0
      000000D8H.1 SFRSYM    DATA     BIT       CCF1
      000000D8H.2 SFRSYM    DATA     BIT       CCF2
      000000D8H.6 SFRSYM    DATA     BIT       CR
      000000D8H.7 SFRSYM    DATA     BIT       CF
      0200042AH   SYMBOL    XDATA    WORD      time_ms
      0200042CH   SYMBOL    XDATA    BYTE      time_sec
      0200042DH   SYMBOL    XDATA    BYTE      time_min
      0200042EH   SYMBOL    XDATA    BYTE      time_hour

      01000009H   BLOCK     CODE     ---       LVL=0
      01000009H   LINE      CODE     ---       #21
      01000009H   LINE      CODE     ---       #22
      01000009H   LINE      CODE     ---       #24
      ---         BLOCKEND  ---      ---       LVL=0

      01001394H   BLOCK     CODE     ---       LVL=0
      01001394H   BLOCK     CODE     NEAR LAB  LVL=1
      02000212H   SYMBOL    XDATA    BYTE      i
      ---         BLOCKEND  ---      ---       LVL=1
      01001394H   LINE      CODE     ---       #27
      01001394H   LINE      CODE     ---       #28
      01001394H   LINE      CODE     ---       #29
      01001399H   LINE      CODE     ---       #31
      010013A7H   LINE      CODE     ---       #32
      010013A7H   LINE      CODE     ---       #33
      010013CBH   LINE      CODE     ---       #34
      010013CBH   LINE      CODE     ---       #35
      01001407H   LINE      CODE     ---       #36
      01001407H   LINE      CODE     ---       #38
      0100142EH   LINE      CODE     ---       #39
      0100142EH   LINE      CODE     ---       #40
      0100146AH   LINE      CODE     ---       #41
      0100146AH   LINE      CODE     ---       #43
      01001491H   LINE      CODE     ---       #44
      01001491H   LINE      CODE     ---       #45
      010014CDH   LINE      CODE     ---       #46
      010014CDH   LINE      CODE     ---       #48
      010014F4H   LINE      CODE     ---       #49
      010014F4H   LINE      CODE     ---       #50
      01001530H   LINE      CODE     ---       #51
      01001530H   LINE      CODE     ---       #52
      01001539H   LINE      CODE     ---       #54
      01001552H   LINE      CODE     ---       #55
      01001552H   LINE      CODE     ---       #56
      01001574H   LINE      CODE     ---       #57
      01001574H   LINE      CODE     ---       #59
      ---         BLOCKEND  ---      ---       LVL=0

      0100000AH   BLOCK     CODE     ---       LVL=0
      0100000AH   LINE      CODE     ---       #62
      0100000AH   LINE      CODE     ---       #63
      0100000AH   LINE      CODE     ---       #65
      ---         BLOCKEND  ---      ---       LVL=0

      0100001AH   BLOCK     CODE     ---       LVL=0
      0100001AH   LINE      CODE     ---       #68
      0100001AH   LINE      CODE     ---       #69
      0100001AH   LINE      CODE     ---       #71
      ---         BLOCKEND  ---      ---       LVL=0

LX51 LINKER/LOCATER V4.41                                                             11/18/2015  10:20:10  PAGE 45


      01000003H   BLOCK     CODE     ---       LVL=0
      01000003H   BLOCK     CODE     NEAR LAB  LVL=1
      020005B6H   SYMBOL    XDATA    BYTE      i
      ---         BLOCKEND  ---      ---       LVL=1
      01000003H   LINE      CODE     ---       #73
      01000003H   LINE      CODE     ---       #74
      01000003H   LINE      CODE     ---       #75
      01000008H   LINE      CODE     ---       #85
      ---         BLOCKEND  ---      ---       LVL=0

      01002411H   BLOCK     CODE     ---       LVL=0
      0100242EH   BLOCK     CODE     NEAR LAB  LVL=1
      02000210H   SYMBOL    XDATA    WORD      i
      ---         BLOCKEND  ---      ---       LVL=1
      01002411H   LINE      CODE     ---       #89
      0100242EH   LINE      CODE     ---       #91
      01002435H   LINE      CODE     ---       #93
      0100244BH   LINE      CODE     ---       #94
      0100244BH   LINE      CODE     ---       #95
      010024A0H   LINE      CODE     ---       #96
      010024B0H   LINE      CODE     ---       #98
      010024BEH   LINE      CODE     ---       #100
      010024C1H   LINE      CODE     ---       #101
      010024D0H   LINE      CODE     ---       #102
      010024D0H   LINE      CODE     ---       #103
      010024D4H   LINE      CODE     ---       #104
      010024D8H   LINE      CODE     ---       #105
      010024DBH   LINE      CODE     ---       #107
      010024E4H   LINE      CODE     ---       #108
      010024E4H   LINE      CODE     ---       #109
      010024E6H   LINE      CODE     ---       #110
      010024EAH   LINE      CODE     ---       #112
      010024EDH   LINE      CODE     ---       #114
      010024F3H   LINE      CODE     ---       #115
      010024F3H   LINE      CODE     ---       #117
      010024F5H   LINE      CODE     ---       #118
      010024F9H   LINE      CODE     ---       #120
      010024FCH   LINE      CODE     ---       #121
      01002502H   LINE      CODE     ---       #122
      01002502H   LINE      CODE     ---       #123
      01002504H   LINE      CODE     ---       #124
      01002504H   LINE      CODE     ---       #125
      01002504H   LINE      CODE     ---       #126
      01002504H   LINE      CODE     ---       #127
      01002504H   LINE      CODE     ---       #128
      ---         BLOCKEND  ---      ---       LVL=0

      ---         MODULE    ---      ---       ADCHL
      020004DFH   PUBLIC    XDATA    BYTE      saving_flag
      020004D3H   PUBLIC    XDATA    ---       g_queue
      020004CFH   PUBLIC    XDATA    ---       g_unusual_flag
      020004BFH   PUBLIC    XDATA    ---       g_unusual_curr
      020004BBH   PUBLIC    XDATA    ---       g_power_switch_flag
      020004ABH   PUBLIC    XDATA    ---       g_curr_tmp
      0200049BH   PUBLIC    XDATA    ---       g_curr_new
      0200048BH   PUBLIC    XDATA    ---       g_curr_old
      02000473H   PUBLIC    XDATA    ---       g_alarm_signal
      01001C2AH   PUBLIC    CODE     ---       _app
      0100251FH   PUBLIC    CODE     ---       _get_lamp_off_alarm_status
      0100261DH   PUBLIC    CODE     ---       _get_lamp_switch_alarm_status
      01000EBCH   PUBLIC    CODE     ---       _get_lamp_on_alarm_status
      010022F6H   PUBLIC    CODE     ---       _unusual_curr
      01003471H   PUBLIC    CODE     ---       get_lamp_work_status
      0100271AH   PUBLIC    CODE     ---       _write_lamp_work_curr_base
      010032B1H   PUBLIC    CODE     ---       _read_lamp_work_curr_base
LX51 LINKER/LOCATER V4.41                                                             11/18/2015  10:20:10  PAGE 46


      010011A3H   PUBLIC    CODE     ---       _frist_lamp_on_hander
      01003711H   PUBLIC    CODE     ---       _check_is_frist_lamp_on
      01002A70H   PUBLIC    CODE     ---       _set_alarm_status
      0100380BH   PUBLIC    CODE     ---       _set_channel
      01002D35H   PUBLIC    CODE     ---       _get_adc_val
      00000080H   SFRSYM    DATA     BYTE      P0
      00000081H   SFRSYM    DATA     BYTE      SP
      00000082H   SFRSYM    DATA     BYTE      DPL
      00000083H   SFRSYM    DATA     BYTE      DPH
      00000084H   SFRSYM    DATA     BYTE      S4CON
      00000085H   SFRSYM    DATA     BYTE      S4BUF
      00000087H   SFRSYM    DATA     BYTE      PCON
      00000088H   SFRSYM    DATA     BYTE      TCON
      00000089H   SFRSYM    DATA     BYTE      TMOD
      0000008AH   SFRSYM    DATA     BYTE      TL0
      0000008BH   SFRSYM    DATA     BYTE      TL1
      0000008CH   SFRSYM    DATA     BYTE      TH0
      0000008DH   SFRSYM    DATA     BYTE      TH1
      0000008EH   SFRSYM    DATA     BYTE      AUXR
      0000008FH   SFRSYM    DATA     BYTE      WAKE_CLKO
      0000008FH   SFRSYM    DATA     BYTE      INT_CLKO
      0000008FH   SFRSYM    DATA     BYTE      AUXR2
      0000008AH   SFRSYM    DATA     BYTE      RL_TL0
      0000008BH   SFRSYM    DATA     BYTE      RL_TL1
      0000008CH   SFRSYM    DATA     BYTE      RL_TH0
      0000008DH   SFRSYM    DATA     BYTE      RL_TH1
      00000090H   SFRSYM    DATA     BYTE      P1
      00000091H   SFRSYM    DATA     BYTE      P1M1
      00000092H   SFRSYM    DATA     BYTE      P1M0
      00000093H   SFRSYM    DATA     BYTE      P0M1
      00000094H   SFRSYM    DATA     BYTE      P0M0
      00000095H   SFRSYM    DATA     BYTE      P2M1
      00000096H   SFRSYM    DATA     BYTE      P2M0
      00000097H   SFRSYM    DATA     BYTE      CLK_DIV
      00000097H   SFRSYM    DATA     BYTE      PCON2
      00000098H   SFRSYM    DATA     BYTE      SCON
      00000099H   SFRSYM    DATA     BYTE      SBUF
      0000009AH   SFRSYM    DATA     BYTE      S2CON
      0000009BH   SFRSYM    DATA     BYTE      S2BUF
      0000009DH   SFRSYM    DATA     BYTE      P1ASF
      000000A0H   SFRSYM    DATA     BYTE      P2
      000000A1H   SFRSYM    DATA     BYTE      BUS_SPEED
      000000A2H   SFRSYM    DATA     BYTE      AUXR1
      000000A2H   SFRSYM    DATA     BYTE      P_SW1
      000000A8H   SFRSYM    DATA     BYTE      IE
      000000A9H   SFRSYM    DATA     BYTE      SADDR
      000000AAH   SFRSYM    DATA     BYTE      WKTCL
      000000ABH   SFRSYM    DATA     BYTE      WKTCH
      000000ACH   SFRSYM    DATA     BYTE      S3CON
      000000ADH   SFRSYM    DATA     BYTE      S3BUF
      000000AFH   SFRSYM    DATA     BYTE      IE2
      000000B0H   SFRSYM    DATA     BYTE      P3
      000000B1H   SFRSYM    DATA     BYTE      P3M1
      000000B2H   SFRSYM    DATA     BYTE      P3M0
      000000B3H   SFRSYM    DATA     BYTE      P4M1
      000000B4H   SFRSYM    DATA     BYTE      P4M0
      000000B5H   SFRSYM    DATA     BYTE      IP2
      000000B6H   SFRSYM    DATA     BYTE      IPH2
      000000B7H   SFRSYM    DATA     BYTE      IPH
      000000B8H   SFRSYM    DATA     BYTE      IP
      000000B9H   SFRSYM    DATA     BYTE      SADEN
      000000BAH   SFRSYM    DATA     BYTE      P_SW2
      000000BCH   SFRSYM    DATA     BYTE      ADC_CONTR
      000000BDH   SFRSYM    DATA     BYTE      ADC_RES
      000000BEH   SFRSYM    DATA     BYTE      ADC_RESL
LX51 LINKER/LOCATER V4.41                                                             11/18/2015  10:20:10  PAGE 47


      000000C0H   SFRSYM    DATA     BYTE      P4
      000000C1H   SFRSYM    DATA     BYTE      WDT_CONTR
      000000C2H   SFRSYM    DATA     BYTE      IAP_DATA
      000000C3H   SFRSYM    DATA     BYTE      IAP_ADDRH
      000000C4H   SFRSYM    DATA     BYTE      IAP_ADDRL
      000000C5H   SFRSYM    DATA     BYTE      IAP_CMD
      000000C6H   SFRSYM    DATA     BYTE      IAP_TRIG
      000000C7H   SFRSYM    DATA     BYTE      IAP_CONTR
      000000C2H   SFRSYM    DATA     BYTE      ISP_DATA
      000000C3H   SFRSYM    DATA     BYTE      ISP_ADDRH
      000000C4H   SFRSYM    DATA     BYTE      ISP_ADDRL
      000000C5H   SFRSYM    DATA     BYTE      ISP_CMD
      000000C6H   SFRSYM    DATA     BYTE      ISP_TRIG
      000000C7H   SFRSYM    DATA     BYTE      ISP_CONTR
      000000C8H   SFRSYM    DATA     BYTE      P5
      000000C9H   SFRSYM    DATA     BYTE      P5M1
      000000CAH   SFRSYM    DATA     BYTE      P5M0
      000000CBH   SFRSYM    DATA     BYTE      P6M1
      000000CCH   SFRSYM    DATA     BYTE      P6M0
      000000CDH   SFRSYM    DATA     BYTE      SPSTAT
      000000CEH   SFRSYM    DATA     BYTE      SPCTL
      000000CFH   SFRSYM    DATA     BYTE      SPDAT
      000000D0H   SFRSYM    DATA     BYTE      PSW
      000000D1H   SFRSYM    DATA     BYTE      T4T3M
      000000D2H   SFRSYM    DATA     BYTE      T4H
      000000D3H   SFRSYM    DATA     BYTE      T4L
      000000D4H   SFRSYM    DATA     BYTE      T3H
      000000D5H   SFRSYM    DATA     BYTE      T3L
      000000D6H   SFRSYM    DATA     BYTE      T2H
      000000D7H   SFRSYM    DATA     BYTE      T2L
      000000D2H   SFRSYM    DATA     BYTE      TH4
      000000D3H   SFRSYM    DATA     BYTE      TL4
      000000D4H   SFRSYM    DATA     BYTE      TH3
      000000D5H   SFRSYM    DATA     BYTE      TL3
      000000D6H   SFRSYM    DATA     BYTE      TH2
      000000D7H   SFRSYM    DATA     BYTE      TL2
      000000D2H   SFRSYM    DATA     BYTE      RL_T4H
      000000D3H   SFRSYM    DATA     BYTE      RL_T4L
      000000D4H   SFRSYM    DATA     BYTE      RL_T3H
      000000D5H   SFRSYM    DATA     BYTE      RL_T3L
      000000D6H   SFRSYM    DATA     BYTE      RL_T2H
      000000D7H   SFRSYM    DATA     BYTE      RL_T2L
      000000D8H   SFRSYM    DATA     BYTE      CCON
      000000D9H   SFRSYM    DATA     BYTE      CMOD
      000000DAH   SFRSYM    DATA     BYTE      CCAPM0
      000000DBH   SFRSYM    DATA     BYTE      CCAPM1
      000000DCH   SFRSYM    DATA     BYTE      CCAPM2
      000000E0H   SFRSYM    DATA     BYTE      ACC
      000000E1H   SFRSYM    DATA     BYTE      P7M1
      000000E2H   SFRSYM    DATA     BYTE      P7M0
      000000E8H   SFRSYM    DATA     BYTE      P6
      000000E9H   SFRSYM    DATA     BYTE      CL
      000000EAH   SFRSYM    DATA     BYTE      CCAP0L
      000000EBH   SFRSYM    DATA     BYTE      CCAP1L
      000000ECH   SFRSYM    DATA     BYTE      CCAP2L
      000000F0H   SFRSYM    DATA     BYTE      B
      000000F2H   SFRSYM    DATA     BYTE      PCA_PWM0
      000000F3H   SFRSYM    DATA     BYTE      PCA_PWM1
      000000F4H   SFRSYM    DATA     BYTE      PCA_PWM2
      000000F8H   SFRSYM    DATA     BYTE      P7
      000000F9H   SFRSYM    DATA     BYTE      CH
      000000FAH   SFRSYM    DATA     BYTE      CCAP0H
      000000FBH   SFRSYM    DATA     BYTE      CCAP1H
      000000FCH   SFRSYM    DATA     BYTE      CCAP2H
      000000D0H.7 SFRSYM    DATA     BIT       CY
LX51 LINKER/LOCATER V4.41                                                             11/18/2015  10:20:10  PAGE 48


      000000D0H.6 SFRSYM    DATA     BIT       AC
      000000D0H.5 SFRSYM    DATA     BIT       F0
      000000D0H.4 SFRSYM    DATA     BIT       RS1
      000000D0H.3 SFRSYM    DATA     BIT       RS0
      000000D0H.2 SFRSYM    DATA     BIT       OV
      000000D0H.1 SFRSYM    DATA     BIT       F1
      000000D0H   SFRSYM    DATA     BIT       P
      00000088H.7 SFRSYM    DATA     BIT       TF1
      00000088H.6 SFRSYM    DATA     BIT       TR1
      00000088H.5 SFRSYM    DATA     BIT       TF0
      00000088H.4 SFRSYM    DATA     BIT       TR0
      00000088H.3 SFRSYM    DATA     BIT       IE1
      00000088H.2 SFRSYM    DATA     BIT       IT1
      00000088H.1 SFRSYM    DATA     BIT       IE0
      00000088H   SFRSYM    DATA     BIT       IT0
      00000080H   SFRSYM    DATA     BIT       P00
      00000080H.1 SFRSYM    DATA     BIT       P01
      00000080H.2 SFRSYM    DATA     BIT       P02
      00000080H.3 SFRSYM    DATA     BIT       P03
      00000080H.4 SFRSYM    DATA     BIT       P04
      00000080H.5 SFRSYM    DATA     BIT       P05
      00000080H.6 SFRSYM    DATA     BIT       P06
      00000080H.7 SFRSYM    DATA     BIT       P07
      00000090H   SFRSYM    DATA     BIT       P10
      00000090H.1 SFRSYM    DATA     BIT       P11
      00000090H.2 SFRSYM    DATA     BIT       P12
      00000090H.3 SFRSYM    DATA     BIT       P13
      00000090H.4 SFRSYM    DATA     BIT       P14
      00000090H.5 SFRSYM    DATA     BIT       P15
      00000090H.6 SFRSYM    DATA     BIT       P16
      00000090H.7 SFRSYM    DATA     BIT       P17
      00000090H   SFRSYM    DATA     BIT       RXD2
      00000090H.1 SFRSYM    DATA     BIT       TXD2
      00000090H   SFRSYM    DATA     BIT       CCP1
      00000090H.1 SFRSYM    DATA     BIT       CCP0
      00000090H.2 SFRSYM    DATA     BIT       SPI_SS
      00000090H.3 SFRSYM    DATA     BIT       SPI_MOSI
      00000090H.4 SFRSYM    DATA     BIT       SPI_MISO
      00000090H.5 SFRSYM    DATA     BIT       SPI_SCLK
      000000A0H.4 SFRSYM    DATA     BIT       SPI_SS_2
      000000A0H.3 SFRSYM    DATA     BIT       SPI_MOSI_2
      000000A0H.2 SFRSYM    DATA     BIT       SPI_MISO_2
      000000A0H.1 SFRSYM    DATA     BIT       SPI_SCLK_2
      000000C8H.4 SFRSYM    DATA     BIT       SPI_SS_3
      000000C0H   SFRSYM    DATA     BIT       SPI_MOSI_3
      000000C0H.1 SFRSYM    DATA     BIT       SPI_MISO_3
      000000C0H.3 SFRSYM    DATA     BIT       SPI_SCLK_3
      000000A0H   SFRSYM    DATA     BIT       P20
      000000A0H.1 SFRSYM    DATA     BIT       P21
      000000A0H.2 SFRSYM    DATA     BIT       P22
      000000A0H.3 SFRSYM    DATA     BIT       P23
      000000A0H.4 SFRSYM    DATA     BIT       P24
      000000A0H.5 SFRSYM    DATA     BIT       P25
      000000A0H.6 SFRSYM    DATA     BIT       P26
      000000A0H.7 SFRSYM    DATA     BIT       P27
      000000B0H   SFRSYM    DATA     BIT       P30
      000000B0H.1 SFRSYM    DATA     BIT       P31
      000000B0H.2 SFRSYM    DATA     BIT       P32
      000000B0H.3 SFRSYM    DATA     BIT       P33
      000000B0H.4 SFRSYM    DATA     BIT       P34
      000000B0H.5 SFRSYM    DATA     BIT       P35
      000000B0H.6 SFRSYM    DATA     BIT       P36
      000000B0H.7 SFRSYM    DATA     BIT       P37
      000000B0H   SFRSYM    DATA     BIT       RXD
      000000B0H.1 SFRSYM    DATA     BIT       TXD
LX51 LINKER/LOCATER V4.41                                                             11/18/2015  10:20:10  PAGE 49


      000000B0H.2 SFRSYM    DATA     BIT       INT0
      000000B0H.3 SFRSYM    DATA     BIT       INT1
      000000B0H.4 SFRSYM    DATA     BIT       T0
      000000B0H.5 SFRSYM    DATA     BIT       T1
      000000B0H.6 SFRSYM    DATA     BIT       WR
      000000B0H.7 SFRSYM    DATA     BIT       RD
      000000B0H.7 SFRSYM    DATA     BIT       CCP2
      000000B0H.5 SFRSYM    DATA     BIT       CLKOUT0
      000000B0H.4 SFRSYM    DATA     BIT       CLKOUT1
      000000C0H   SFRSYM    DATA     BIT       P40
      000000C0H.1 SFRSYM    DATA     BIT       P41
      000000C0H.2 SFRSYM    DATA     BIT       P42
      000000C0H.3 SFRSYM    DATA     BIT       P43
      000000C0H.4 SFRSYM    DATA     BIT       P44
      000000C0H.5 SFRSYM    DATA     BIT       P45
      000000C0H.6 SFRSYM    DATA     BIT       P46
      000000C0H.7 SFRSYM    DATA     BIT       P47
      000000C8H   SFRSYM    DATA     BIT       P50
      000000C8H.1 SFRSYM    DATA     BIT       P51
      000000C8H.2 SFRSYM    DATA     BIT       P52
      000000C8H.3 SFRSYM    DATA     BIT       P53
      000000C8H.4 SFRSYM    DATA     BIT       P54
      000000C8H.5 SFRSYM    DATA     BIT       P55
      000000C8H.6 SFRSYM    DATA     BIT       P56
      000000C8H.7 SFRSYM    DATA     BIT       P57
      00000098H.7 SFRSYM    DATA     BIT       SM0
      00000098H.6 SFRSYM    DATA     BIT       SM1
      00000098H.5 SFRSYM    DATA     BIT       SM2
      00000098H.4 SFRSYM    DATA     BIT       REN
      00000098H.3 SFRSYM    DATA     BIT       TB8
      00000098H.2 SFRSYM    DATA     BIT       RB8
      00000098H.1 SFRSYM    DATA     BIT       TI
      00000098H   SFRSYM    DATA     BIT       RI
      000000A8H.7 SFRSYM    DATA     BIT       EA
      000000A8H.6 SFRSYM    DATA     BIT       ELVD
      000000A8H.5 SFRSYM    DATA     BIT       EADC
      000000A8H.4 SFRSYM    DATA     BIT       ES
      000000A8H.3 SFRSYM    DATA     BIT       ET1
      000000A8H.2 SFRSYM    DATA     BIT       EX1
      000000A8H.1 SFRSYM    DATA     BIT       ET0
      000000A8H   SFRSYM    DATA     BIT       EX0
      000000E0H   SFRSYM    DATA     BIT       ACC0
      000000E0H.1 SFRSYM    DATA     BIT       ACC1
      000000E0H.2 SFRSYM    DATA     BIT       ACC2
      000000E0H.3 SFRSYM    DATA     BIT       ACC3
      000000E0H.4 SFRSYM    DATA     BIT       ACC4
      000000E0H.5 SFRSYM    DATA     BIT       ACC5
      000000E0H.6 SFRSYM    DATA     BIT       ACC6
      000000E0H.7 SFRSYM    DATA     BIT       ACC7
      000000F0H   SFRSYM    DATA     BIT       B0
      000000F0H.1 SFRSYM    DATA     BIT       B1
      000000F0H.2 SFRSYM    DATA     BIT       B2
      000000F0H.3 SFRSYM    DATA     BIT       B3
      000000F0H.4 SFRSYM    DATA     BIT       B4
      000000F0H.5 SFRSYM    DATA     BIT       B5
      000000F0H.6 SFRSYM    DATA     BIT       B6
      000000F0H.7 SFRSYM    DATA     BIT       B7
      000000B8H.7 SFRSYM    DATA     BIT       PPCA
      000000B8H.6 SFRSYM    DATA     BIT       PLVD
      000000B8H.5 SFRSYM    DATA     BIT       PADC
      000000B8H.4 SFRSYM    DATA     BIT       PS
      000000B8H.3 SFRSYM    DATA     BIT       PT1
      000000B8H.2 SFRSYM    DATA     BIT       PX1
      000000B8H.1 SFRSYM    DATA     BIT       PT0
      000000B8H   SFRSYM    DATA     BIT       PX0
LX51 LINKER/LOCATER V4.41                                                             11/18/2015  10:20:10  PAGE 50


      000000D8H   SFRSYM    DATA     BIT       CCF0
      000000D8H.1 SFRSYM    DATA     BIT       CCF1
      000000D8H.2 SFRSYM    DATA     BIT       CCF2
      000000D8H.6 SFRSYM    DATA     BIT       CR
      000000D8H.7 SFRSYM    DATA     BIT       CF
      02000477H   SYMBOL    XDATA    ---       g_status_new
      0200047BH   SYMBOL    XDATA    ---       g_status_old
      0200047FH   SYMBOL    XDATA    ---       g_power_on_flag
      02000483H   SYMBOL    XDATA    ---       g_write_sector1_en_flag
      02000487H   SYMBOL    XDATA    ---       g_write_sector2_en_flag
      01003C46H   SYMBOL    CONST    ---       _?ix1000
      01003C5AH   SYMBOL    CONST    ---       _?ix1001
      01003C5DH   SYMBOL    CONST    ---       _?ix1002
      01003C60H   SYMBOL    CONST    ---       _?ix1003
      01003C88H   SYMBOL    CONST    ---       _?ix1004
      01003C8BH   SYMBOL    CONST    ---       _?ix1005

      01002D35H   BLOCK     CODE     ---       LVL=0
      0200051AH   SYMBOL    XDATA    BYTE      channel
      01002D3AH   BLOCK     CODE     NEAR LAB  LVL=1
      0200051BH   SYMBOL    XDATA    WORD      adc_val
      0200051DH   SYMBOL    XDATA    ---       adc_tmp
      02000531H   SYMBOL    XDATA    WORD      i
      02000533H   SYMBOL    XDATA    DWORD     tmp
      ---         BLOCKEND  ---      ---       LVL=1
      01002D35H   LINE      CODE     ---       #61
      01002D3AH   LINE      CODE     ---       #62
      01002D3AH   LINE      CODE     ---       #63
      01002D58H   LINE      CODE     ---       #64
      01002D60H   LINE      CODE     ---       #65
      01002D67H   LINE      CODE     ---       #66
      01002D67H   LINE      CODE     ---       #67
      01002D77H   LINE      CODE     ---       #68
      01002DA2H   LINE      CODE     ---       #69
      01002DBFH   LINE      CODE     ---       #71
      01002DDEH   LINE      CODE     ---       #73
      01002DDEH   LINE      CODE     ---       #74
      ---         BLOCKEND  ---      ---       LVL=0

      0100380BH   BLOCK     CODE     ---       LVL=0
      00000007H   SYMBOL    DATA     BYTE      channel
      0100380BH   LINE      CODE     ---       #90
      0100380BH   LINE      CODE     ---       #91
      0100380BH   LINE      CODE     ---       #92
      01003819H   LINE      CODE     ---       #93
      01003819H   LINE      CODE     ---       #94
      01003819H   LINE      CODE     ---       #95
      0100381BH   LINE      CODE     ---       #96
      0100381BH   LINE      CODE     ---       #97
      0100381DH   LINE      CODE     ---       #99
      0100381DH   LINE      CODE     ---       #100
      01003824H   LINE      CODE     ---       #101
      01003826H   LINE      CODE     ---       #102
      01003828H   LINE      CODE     ---       #104
      01003828H   LINE      CODE     ---       #105
      0100382EH   LINE      CODE     ---       #106
      01003830H   LINE      CODE     ---       #107
      01003832H   LINE      CODE     ---       #109
      01003832H   LINE      CODE     ---       #110
      01003839H   LINE      CODE     ---       #111
      01003840H   LINE      CODE     ---       #112
      01003840H   LINE      CODE     ---       #113
      01003840H   LINE      CODE     ---       #114
      ---         BLOCKEND  ---      ---       LVL=0

LX51 LINKER/LOCATER V4.41                                                             11/18/2015  10:20:10  PAGE 51


      01002A70H   BLOCK     CODE     ---       LVL=0
      02000223H   SYMBOL    XDATA    ---       val
      01002A70H   LINE      CODE     ---       #129
      01002A7BH   LINE      CODE     ---       #130
      01002A7BH   LINE      CODE     ---       #131
      01002A8CH   LINE      CODE     ---       #132
      01002A8CH   LINE      CODE     ---       #133
      01002A93H   LINE      CODE     ---       #134
      01002A95H   LINE      CODE     ---       #135
      01002A97H   LINE      CODE     ---       #137
      01002A97H   LINE      CODE     ---       #138
      01002A9EH   LINE      CODE     ---       #139
      01002AA5H   LINE      CODE     ---       #140
      01002AA5H   LINE      CODE     ---       #142
      01002AB9H   LINE      CODE     ---       #143
      01002AB9H   LINE      CODE     ---       #144
      01002AC0H   LINE      CODE     ---       #145
      01002AC2H   LINE      CODE     ---       #146
      01002AC4H   LINE      CODE     ---       #148
      01002AC4H   LINE      CODE     ---       #149
      01002ACBH   LINE      CODE     ---       #150
      01002AD2H   LINE      CODE     ---       #151
      01002AD2H   LINE      CODE     ---       #153
      01002AE6H   LINE      CODE     ---       #154
      01002AE6H   LINE      CODE     ---       #155
      01002AEDH   LINE      CODE     ---       #156
      01002AEFH   LINE      CODE     ---       #157
      01002AF1H   LINE      CODE     ---       #159
      01002AF1H   LINE      CODE     ---       #160
      01002AF8H   LINE      CODE     ---       #161
      01002AFFH   LINE      CODE     ---       #162
      01002AFFH   LINE      CODE     ---       #164
      01002B13H   LINE      CODE     ---       #165
      01002B13H   LINE      CODE     ---       #166
      01002B1AH   LINE      CODE     ---       #167
      01002B1CH   LINE      CODE     ---       #168
      01002B1EH   LINE      CODE     ---       #170
      01002B1EH   LINE      CODE     ---       #171
      01002B25H   LINE      CODE     ---       #172
      01002B2CH   LINE      CODE     ---       #173
      01002B2CH   LINE      CODE     ---       #174
      ---         BLOCKEND  ---      ---       LVL=0

      01003711H   BLOCK     CODE     ---       LVL=0
      02000224H   SYMBOL    XDATA    BYTE      channel
      01003716H   BLOCK     CODE     NEAR LAB  LVL=1
      00000007H   SYMBOL    DATA     BYTE      i
      02000225H   SYMBOL    XDATA    ---       tmp
      ---         BLOCKEND  ---      ---       LVL=1
      01003711H   LINE      CODE     ---       #190
      01003716H   LINE      CODE     ---       #191
      01003716H   LINE      CODE     ---       #192
      01003717H   LINE      CODE     ---       #193
      01003729H   LINE      CODE     ---       #195
      01003737H   LINE      CODE     ---       #197
      01003739H   LINE      CODE     ---       #198
      01003739H   LINE      CODE     ---       #199
      01003747H   LINE      CODE     ---       #200
      01003747H   LINE      CODE     ---       #201
      0100374AH   LINE      CODE     ---       #202
      0100374AH   LINE      CODE     ---       #203
      0100374FH   LINE      CODE     ---       #205
      01003751H   LINE      CODE     ---       #206
      ---         BLOCKEND  ---      ---       LVL=0

LX51 LINKER/LOCATER V4.41                                                             11/18/2015  10:20:10  PAGE 52


      010011A3H   BLOCK     CODE     ---       LVL=0
      020004E0H   SYMBOL    XDATA    BYTE      channel
      010011A8H   BLOCK     CODE     NEAR LAB  LVL=1
      020004E1H   SYMBOL    XDATA    BYTE      ret
      020004E2H   SYMBOL    XDATA    BYTE      i
      020004E3H   SYMBOL    XDATA    ---       tmp
      020004E6H   SYMBOL    XDATA    DWORD     curr_total
      020004EAH   SYMBOL    XDATA    DWORD     curr_average
      020004EEH   SYMBOL    XDATA    DWORD     curr_tmp
      020004F2H   SYMBOL    XDATA    ---       curr
      ---         BLOCKEND  ---      ---       LVL=1
      010011A3H   LINE      CODE     ---       #223
      010011A8H   LINE      CODE     ---       #224
      010011A8H   LINE      CODE     ---       #225
      010011BFH   LINE      CODE     ---       #226
      010011DDH   LINE      CODE     ---       #227
      010011F0H   LINE      CODE     ---       #229
      010011F9H   LINE      CODE     ---       #231
      01001213H   LINE      CODE     ---       #232
      01001215H   LINE      CODE     ---       #233
      01001215H   LINE      CODE     ---       #234
      01001232H   LINE      CODE     ---       #235
      01001232H   LINE      CODE     ---       #237
      0100124CH   LINE      CODE     ---       #238
      01001253H   LINE      CODE     ---       #239
      01001253H   LINE      CODE     ---       #240
      01001279H   LINE      CODE     ---       #241
      01001288H   LINE      CODE     ---       #242
      01001288H   LINE      CODE     ---       #243
      010012C1H   LINE      CODE     ---       #244
      010012C9H   LINE      CODE     ---       #246
      010012E6H   LINE      CODE     ---       #247
      0100130CH   LINE      CODE     ---       #248
      0100132CH   LINE      CODE     ---       #249
      0100132CH   LINE      CODE     ---       #250
      01001344H   LINE      CODE     ---       #251
      0100135CH   LINE      CODE     ---       #252
      01001370H   LINE      CODE     ---       #253
      0100137EH   LINE      CODE     ---       #255
      0100137EH   LINE      CODE     ---       #257
      0100137EH   LINE      CODE     ---       #258
      01001393H   LINE      CODE     ---       #259
      01001393H   LINE      CODE     ---       #260
      01001393H   LINE      CODE     ---       #261
      ---         BLOCKEND  ---      ---       LVL=0

      010032B1H   BLOCK     CODE     ---       LVL=0
      020005A2H   SYMBOL    XDATA    BYTE      channel
      010032B6H   BLOCK     CODE     NEAR LAB  LVL=1
      020005A3H   SYMBOL    XDATA    ---       tmp
      00000004H   SYMBOL    DATA     DWORD     curr
      ---         BLOCKEND  ---      ---       LVL=1
      010032B1H   LINE      CODE     ---       #277
      010032B6H   LINE      CODE     ---       #278
      010032B6H   LINE      CODE     ---       #279
      010032C9H   LINE      CODE     ---       #280
      010032CFH   LINE      CODE     ---       #282
      010032DDH   LINE      CODE     ---       #284
      010032E6H   LINE      CODE     ---       #285
      01003306H   LINE      CODE     ---       #286
      01003326H   LINE      CODE     ---       #288
      01003326H   LINE      CODE     ---       #289
      ---         BLOCKEND  ---      ---       LVL=0

      0100271AH   BLOCK     CODE     ---       LVL=0
LX51 LINKER/LOCATER V4.41                                                             11/18/2015  10:20:10  PAGE 53


      0200054CH   SYMBOL    XDATA    BYTE      channel
      0100271FH   BLOCK     CODE     NEAR LAB  LVL=1
      0200054DH   SYMBOL    XDATA    DWORD     tmp_curr
      02000551H   SYMBOL    XDATA    DWORD     curr
      02000555H   SYMBOL    XDATA    DWORD     curr_total
      02000559H   SYMBOL    XDATA    BYTE      i
      0200055AH   SYMBOL    XDATA    ---       tmp
      ---         BLOCKEND  ---      ---       LVL=1
      0100271AH   LINE      CODE     ---       #304
      0100271FH   LINE      CODE     ---       #305
      0100271FH   LINE      CODE     ---       #306
      0100273BH   LINE      CODE     ---       #307
      01002752H   LINE      CODE     ---       #309
      01002757H   LINE      CODE     ---       #310
      01002757H   LINE      CODE     ---       #311
      01002760H   LINE      CODE     ---       #312
      0100276BH   LINE      CODE     ---       #313
      01002799H   LINE      CODE     ---       #314
      010027A5H   LINE      CODE     ---       #316
      010027C2H   LINE      CODE     ---       #317
      010027DAH   LINE      CODE     ---       #318
      010027F2H   LINE      CODE     ---       #319
      01002806H   LINE      CODE     ---       #321
      ---         BLOCKEND  ---      ---       LVL=0

      01003471H   BLOCK     CODE     ---       LVL=0
      01003471H   BLOCK     CODE     NEAR LAB  LVL=1
      02000224H   SYMBOL    XDATA    BYTE      status
      02000225H   SYMBOL    XDATA    BYTE      i
      02000226H   SYMBOL    XDATA    BYTE      cnt
      02000227H   SYMBOL    XDATA    WORD      vol_val
      ---         BLOCKEND  ---      ---       LVL=1
      01003471H   LINE      CODE     ---       #337
      01003471H   LINE      CODE     ---       #338
      01003471H   LINE      CODE     ---       #339
      0100347AH   LINE      CODE     ---       #340
      0100347EH   LINE      CODE     ---       #342
      01003482H   LINE      CODE     ---       #343
      01003482H   LINE      CODE     ---       #344
      0100348DH   LINE      CODE     ---       #345
      01003498H   LINE      CODE     ---       #346
      0100349EH   LINE      CODE     ---       #348
      010034ADH   LINE      CODE     ---       #349
      010034ADH   LINE      CODE     ---       #350
      010034B5H   LINE      CODE     ---       #351
      010034B5H   LINE      CODE     ---       #352
      010034B7H   LINE      CODE     ---       #353
      010034BBH   LINE      CODE     ---       #354
      010034BBH   LINE      CODE     ---       #355
      010034BDH   LINE      CODE     ---       #357
      010034BDH   LINE      CODE     ---       #358
      010034C2H   LINE      CODE     ---       #359
      010034C7H   LINE      CODE     ---       #360
      010034C7H   LINE      CODE     ---       #361
      010034D3H   LINE      CODE     ---       #363
      010034D8H   LINE      CODE     ---       #364
      ---         BLOCKEND  ---      ---       LVL=0

      010022F6H   BLOCK     CODE     ---       LVL=0
      02000574H   SYMBOL    XDATA    BYTE      channel
      010022FBH   BLOCK     CODE     NEAR LAB  LVL=1
      02000575H   SYMBOL    XDATA    DWORD     i
      02000579H   SYMBOL    XDATA    DWORD     cnt
      ---         BLOCKEND  ---      ---       LVL=1
      010022F6H   LINE      CODE     ---       #370
LX51 LINKER/LOCATER V4.41                                                             11/18/2015  10:20:10  PAGE 54


      010022FBH   LINE      CODE     ---       #371
      010022FBH   LINE      CODE     ---       #372
      0100230DH   LINE      CODE     ---       #373
      01002334H   LINE      CODE     ---       #374
      01002334H   LINE      CODE     ---       #375
      0100234CH   LINE      CODE     ---       #377
      01002371H   LINE      CODE     ---       #378
      01002371H   LINE      CODE     ---       #379
      01002390H   LINE      CODE     ---       #380
      010023AAH   LINE      CODE     ---       #381
      010023AAH   LINE      CODE     ---       #382
      010023B4H   LINE      CODE     ---       #383
      010023C4H   LINE      CODE     ---       #385
      010023C9H   LINE      CODE     ---       #386
      010023CEH   LINE      CODE     ---       #387
      010023CEH   LINE      CODE     ---       #388
      010023D0H   LINE      CODE     ---       #390
      010023D0H   LINE      CODE     ---       #391
      010023DAH   LINE      CODE     ---       #392
      010023E9H   LINE      CODE     ---       #393
      010023EEH   LINE      CODE     ---       #394
      010023EEH   LINE      CODE     ---       #395
      01002410H   LINE      CODE     ---       #396
      ---         BLOCKEND  ---      ---       LVL=0

      01000EBCH   BLOCK     CODE     ---       LVL=0
      02000224H   SYMBOL    XDATA    BYTE      channel
      01000EC1H   BLOCK     CODE     NEAR LAB  LVL=1
      02000225H   SYMBOL    XDATA    BYTE      switch_val
      02000226H   SYMBOL    XDATA    BYTE      i
      02000227H   SYMBOL    XDATA    DWORD     tmp
      0200022BH   SYMBOL    XDATA    DWORD     cnt
      ---         BLOCKEND  ---      ---       LVL=1
      01000EBCH   LINE      CODE     ---       #419
      01000EC1H   LINE      CODE     ---       #420
      01000EC1H   LINE      CODE     ---       #421
      01000EC6H   LINE      CODE     ---       #422
      01000ED8H   LINE      CODE     ---       #424
      01000EE0H   LINE      CODE     ---       #426
      01000EF2H   LINE      CODE     ---       #427
      01000EF2H   LINE      CODE     ---       #428
      01000EF5H   LINE      CODE     ---       #429
      01000EFAH   LINE      CODE     ---       #430
      01000EFAH   LINE      CODE     ---       #432
      01000EFAH   LINE      CODE     ---       #434
      01000EFFH   LINE      CODE     ---       #435
      01000F07H   LINE      CODE     ---       #437
      01000F49H   LINE      CODE     ---       #439
      01000F52H   LINE      CODE     ---       #441
      01000F93H   LINE      CODE     ---       #443
      01000FCBH   LINE      CODE     ---       #444
      01000FCBH   LINE      CODE     ---       #445
      01000FF9H   LINE      CODE     ---       #447
      01001003H   LINE      CODE     ---       #448
      01001003H   LINE      CODE     ---       #449
      01001018H   LINE      CODE     ---       #450
      0100101BH   LINE      CODE     ---       #452
      0100101BH   LINE      CODE     ---       #453
      01001030H   LINE      CODE     ---       #454
      01001030H   LINE      CODE     ---       #455
      01001030H   LINE      CODE     ---       #456
      01001033H   LINE      CODE     ---       #457
      0100106FH   LINE      CODE     ---       #458
      0100106FH   LINE      CODE     ---       #459
      0100109DH   LINE      CODE     ---       #461
LX51 LINKER/LOCATER V4.41                                                             11/18/2015  10:20:10  PAGE 55


      010010A7H   LINE      CODE     ---       #462
      010010A7H   LINE      CODE     ---       #463
      010010BCH   LINE      CODE     ---       #464
      010010BEH   LINE      CODE     ---       #466
      010010BEH   LINE      CODE     ---       #467
      010010D3H   LINE      CODE     ---       #468
      010010D3H   LINE      CODE     ---       #469
      010010E2H   LINE      CODE     ---       #470
      010010E3H   LINE      CODE     ---       #471
      01001130H   LINE      CODE     ---       #472
      01001130H   LINE      CODE     ---       #473
      01001135H   LINE      CODE     ---       #474
      0100115CH   LINE      CODE     ---       #475
      0100115CH   LINE      CODE     ---       #476
      01001166H   LINE      CODE     ---       #477
      01001166H   LINE      CODE     ---       #478
      0100117BH   LINE      CODE     ---       #479
      0100117DH   LINE      CODE     ---       #481
      0100117DH   LINE      CODE     ---       #482
      01001192H   LINE      CODE     ---       #483
      01001192H   LINE      CODE     ---       #485
      010011A2H   LINE      CODE     ---       #487
      010011A2H   LINE      CODE     ---       #489
      010011A2H   LINE      CODE     ---       #491
      010011A2H   LINE      CODE     ---       #492
      ---         BLOCKEND  ---      ---       LVL=0

      0100261DH   BLOCK     CODE     ---       LVL=0
      00000003H   SYMBOL    DATA     BYTE      channel
      0100261FH   BLOCK     CODE     NEAR LAB  LVL=1
      0200055DH   SYMBOL    XDATA    DWORD     curr_base
      02000561H   SYMBOL    XDATA    DWORD     cnt
      02000565H   SYMBOL    XDATA    DWORD     tmp
      02000569H   SYMBOL    XDATA    BYTE      status
      0200056AH   SYMBOL    XDATA    BYTE      i
      ---         BLOCKEND  ---      ---       LVL=1
      0100261DH   LINE      CODE     ---       #508
      0100261FH   LINE      CODE     ---       #509
      0100261FH   LINE      CODE     ---       #510
      0100263DH   LINE      CODE     ---       #511
      01002644H   LINE      CODE     ---       #513
      0100264FH   LINE      CODE     ---       #515
      01002675H   LINE      CODE     ---       #516
      0100267AH   LINE      CODE     ---       #517
      0100267AH   LINE      CODE     ---       #518
      01002683H   LINE      CODE     ---       #519
      0100268EH   LINE      CODE     ---       #520
      010026B0H   LINE      CODE     ---       #521
      010026B0H   LINE      CODE     ---       #522
      010026CFH   LINE      CODE     ---       #523
      010026E9H   LINE      CODE     ---       #524
      010026E9H   LINE      CODE     ---       #525
      010026F3H   LINE      CODE     ---       #526
      010026F9H   LINE      CODE     ---       #527
      010026F9H   LINE      CODE     ---       #528
      010026FBH   LINE      CODE     ---       #530
      010026FBH   LINE      CODE     ---       #531
      01002705H   LINE      CODE     ---       #532
      01002705H   LINE      CODE     ---       #533
      01002714H   LINE      CODE     ---       #535
      01002719H   LINE      CODE     ---       #536
      ---         BLOCKEND  ---      ---       LVL=0

      0100251FH   BLOCK     CODE     ---       LVL=0
      02000224H   SYMBOL    XDATA    BYTE      channel
LX51 LINKER/LOCATER V4.41                                                             11/18/2015  10:20:10  PAGE 56


      01002525H   BLOCK     CODE     NEAR LAB  LVL=1
      02000225H   SYMBOL    XDATA    FLOAT     vol_val
      02000229H   SYMBOL    XDATA    FLOAT     vol_base
      00000006H   SYMBOL    DATA     WORD      ad_val
      ---         BLOCKEND  ---      ---       LVL=1
      0100251FH   LINE      CODE     ---       #551
      01002525H   LINE      CODE     ---       #552
      01002525H   LINE      CODE     ---       #553
      01002537H   LINE      CODE     ---       #554
      01002539H   LINE      CODE     ---       #556
      01002540H   LINE      CODE     ---       #557
      01002549H   LINE      CODE     ---       #559
      01002566H   LINE      CODE     ---       #560
      01002566H   LINE      CODE     ---       #561
      01002590H   LINE      CODE     ---       #562
      01002590H   LINE      CODE     ---       #563
      0100259AH   LINE      CODE     ---       #564
      0100259AH   LINE      CODE     ---       #565
      010025AFH   LINE      CODE     ---       #566
      010025B1H   LINE      CODE     ---       #568
      010025B1H   LINE      CODE     ---       #569
      010025C6H   LINE      CODE     ---       #570
      010025C6H   LINE      CODE     ---       #572
      010025D6H   LINE      CODE     ---       #573
      010025D6H   LINE      CODE     ---       #574
      010025D7H   LINE      CODE     ---       #576
      010025D7H   LINE      CODE     ---       #578
      010025E1H   LINE      CODE     ---       #579
      010025E1H   LINE      CODE     ---       #580
      010025F6H   LINE      CODE     ---       #581
      010025F8H   LINE      CODE     ---       #583
      010025F8H   LINE      CODE     ---       #584
      0100260DH   LINE      CODE     ---       #585
      0100260DH   LINE      CODE     ---       #587
      0100261CH   LINE      CODE     ---       #588
      0100261CH   LINE      CODE     ---       #589
      ---         BLOCKEND  ---      ---       LVL=0

      01001C2AH   BLOCK     CODE     ---       LVL=0
      02000223H   SYMBOL    XDATA    BYTE      channel
      01001C2AH   LINE      CODE     ---       #605
      01001C2FH   LINE      CODE     ---       #606
      01001C2FH   LINE      CODE     ---       #608
      01001C42H   LINE      CODE     ---       #611
      01001C5AH   LINE      CODE     ---       #612
      01001C6DH   LINE      CODE     ---       #614
      01001C8BH   LINE      CODE     ---       #615
      01001C8BH   LINE      CODE     ---       #616
      01001C93H   LINE      CODE     ---       #617
      01001C93H   LINE      CODE     ---       #618
      01001C9DH   LINE      CODE     ---       #619
      01001C9DH   LINE      CODE     ---       #620
      01001CB2H   LINE      CODE     ---       #621
      01001CB4H   LINE      CODE     ---       #623
      01001CB4H   LINE      CODE     ---       #624
      01001CC9H   LINE      CODE     ---       #625
      01001CC9H   LINE      CODE     ---       #626
      01001CCEH   LINE      CODE     ---       #627
      01001CE7H   LINE      CODE     ---       #628
      01001CFCH   LINE      CODE     ---       #629
      01001D14H   LINE      CODE     ---       #630
      01001D16H   LINE      CODE     ---       #632
      01001D16H   LINE      CODE     ---       #633
      01001D20H   LINE      CODE     ---       #634
      01001D20H   LINE      CODE     ---       #635
LX51 LINKER/LOCATER V4.41                                                             11/18/2015  10:20:10  PAGE 57


      01001D35H   LINE      CODE     ---       #636
      01001D37H   LINE      CODE     ---       #638
      01001D37H   LINE      CODE     ---       #639
      01001D4CH   LINE      CODE     ---       #640
      01001D4CH   LINE      CODE     ---       #641
      01001D51H   LINE      CODE     ---       #642
      01001D51H   LINE      CODE     ---       #643
      01001D51H   LINE      CODE     ---       #646
      01001D63H   LINE      CODE     ---       #647
      01001D63H   LINE      CODE     ---       #648
      01001D87H   LINE      CODE     ---       #649
      01001D87H   LINE      CODE     ---       #650
      01001D8FH   LINE      CODE     ---       #651
      01001D8FH   LINE      CODE     ---       #652
      01001D8FH   LINE      CODE     ---       #654
      01001D8FH   LINE      CODE     ---       #655
      01001DB6H   LINE      CODE     ---       #656
      01001DB6H   LINE      CODE     ---       #657
      01001DBEH   LINE      CODE     ---       #658
      01001DBEH   LINE      CODE     ---       #659
      01001DBEH   LINE      CODE     ---       #660
      ---         BLOCKEND  ---      ---       LVL=0

      ---         MODULE    ---      ---       CODE_SWITCH
      01003B55H   PUBLIC    CODE     ---       get_app_wrok_status
      01003A76H   PUBLIC    CODE     ---       get_switch_2_val
      01000046H   PUBLIC    CODE     ---       get_switch_1_val
      00000080H   SFRSYM    DATA     BYTE      P0
      00000081H   SFRSYM    DATA     BYTE      SP
      00000082H   SFRSYM    DATA     BYTE      DPL
      00000083H   SFRSYM    DATA     BYTE      DPH
      00000084H   SFRSYM    DATA     BYTE      S4CON
      00000085H   SFRSYM    DATA     BYTE      S4BUF
      00000087H   SFRSYM    DATA     BYTE      PCON
      00000088H   SFRSYM    DATA     BYTE      TCON
      00000089H   SFRSYM    DATA     BYTE      TMOD
      0000008AH   SFRSYM    DATA     BYTE      TL0
      0000008BH   SFRSYM    DATA     BYTE      TL1
      0000008CH   SFRSYM    DATA     BYTE      TH0
      0000008DH   SFRSYM    DATA     BYTE      TH1
      0000008EH   SFRSYM    DATA     BYTE      AUXR
      0000008FH   SFRSYM    DATA     BYTE      WAKE_CLKO
      0000008FH   SFRSYM    DATA     BYTE      INT_CLKO
      0000008FH   SFRSYM    DATA     BYTE      AUXR2
      0000008AH   SFRSYM    DATA     BYTE      RL_TL0
      0000008BH   SFRSYM    DATA     BYTE      RL_TL1
      0000008CH   SFRSYM    DATA     BYTE      RL_TH0
      0000008DH   SFRSYM    DATA     BYTE      RL_TH1
      00000090H   SFRSYM    DATA     BYTE      P1
      00000091H   SFRSYM    DATA     BYTE      P1M1
      00000092H   SFRSYM    DATA     BYTE      P1M0
      00000093H   SFRSYM    DATA     BYTE      P0M1
      00000094H   SFRSYM    DATA     BYTE      P0M0
      00000095H   SFRSYM    DATA     BYTE      P2M1
      00000096H   SFRSYM    DATA     BYTE      P2M0
      00000097H   SFRSYM    DATA     BYTE      CLK_DIV
      00000097H   SFRSYM    DATA     BYTE      PCON2
      00000098H   SFRSYM    DATA     BYTE      SCON
      00000099H   SFRSYM    DATA     BYTE      SBUF
      0000009AH   SFRSYM    DATA     BYTE      S2CON
      0000009BH   SFRSYM    DATA     BYTE      S2BUF
      0000009DH   SFRSYM    DATA     BYTE      P1ASF
      000000A0H   SFRSYM    DATA     BYTE      P2
      000000A1H   SFRSYM    DATA     BYTE      BUS_SPEED
      000000A2H   SFRSYM    DATA     BYTE      AUXR1
LX51 LINKER/LOCATER V4.41                                                             11/18/2015  10:20:10  PAGE 58


      000000A2H   SFRSYM    DATA     BYTE      P_SW1
      000000A8H   SFRSYM    DATA     BYTE      IE
      000000A9H   SFRSYM    DATA     BYTE      SADDR
      000000AAH   SFRSYM    DATA     BYTE      WKTCL
      000000ABH   SFRSYM    DATA     BYTE      WKTCH
      000000ACH   SFRSYM    DATA     BYTE      S3CON
      000000ADH   SFRSYM    DATA     BYTE      S3BUF
      000000AFH   SFRSYM    DATA     BYTE      IE2
      000000B0H   SFRSYM    DATA     BYTE      P3
      000000B1H   SFRSYM    DATA     BYTE      P3M1
      000000B2H   SFRSYM    DATA     BYTE      P3M0
      000000B3H   SFRSYM    DATA     BYTE      P4M1
      000000B4H   SFRSYM    DATA     BYTE      P4M0
      000000B5H   SFRSYM    DATA     BYTE      IP2
      000000B6H   SFRSYM    DATA     BYTE      IPH2
      000000B7H   SFRSYM    DATA     BYTE      IPH
      000000B8H   SFRSYM    DATA     BYTE      IP
      000000B9H   SFRSYM    DATA     BYTE      SADEN
      000000BAH   SFRSYM    DATA     BYTE      P_SW2
      000000BCH   SFRSYM    DATA     BYTE      ADC_CONTR
      000000BDH   SFRSYM    DATA     BYTE      ADC_RES
      000000BEH   SFRSYM    DATA     BYTE      ADC_RESL
      000000C0H   SFRSYM    DATA     BYTE      P4
      000000C1H   SFRSYM    DATA     BYTE      WDT_CONTR
      000000C2H   SFRSYM    DATA     BYTE      IAP_DATA
      000000C3H   SFRSYM    DATA     BYTE      IAP_ADDRH
      000000C4H   SFRSYM    DATA     BYTE      IAP_ADDRL
      000000C5H   SFRSYM    DATA     BYTE      IAP_CMD
      000000C6H   SFRSYM    DATA     BYTE      IAP_TRIG
      000000C7H   SFRSYM    DATA     BYTE      IAP_CONTR
      000000C2H   SFRSYM    DATA     BYTE      ISP_DATA
      000000C3H   SFRSYM    DATA     BYTE      ISP_ADDRH
      000000C4H   SFRSYM    DATA     BYTE      ISP_ADDRL
      000000C5H   SFRSYM    DATA     BYTE      ISP_CMD
      000000C6H   SFRSYM    DATA     BYTE      ISP_TRIG
      000000C7H   SFRSYM    DATA     BYTE      ISP_CONTR
      000000C8H   SFRSYM    DATA     BYTE      P5
      000000C9H   SFRSYM    DATA     BYTE      P5M1
      000000CAH   SFRSYM    DATA     BYTE      P5M0
      000000CBH   SFRSYM    DATA     BYTE      P6M1
      000000CCH   SFRSYM    DATA     BYTE      P6M0
      000000CDH   SFRSYM    DATA     BYTE      SPSTAT
      000000CEH   SFRSYM    DATA     BYTE      SPCTL
      000000CFH   SFRSYM    DATA     BYTE      SPDAT
      000000D0H   SFRSYM    DATA     BYTE      PSW
      000000D1H   SFRSYM    DATA     BYTE      T4T3M
      000000D2H   SFRSYM    DATA     BYTE      T4H
      000000D3H   SFRSYM    DATA     BYTE      T4L
      000000D4H   SFRSYM    DATA     BYTE      T3H
      000000D5H   SFRSYM    DATA     BYTE      T3L
      000000D6H   SFRSYM    DATA     BYTE      T2H
      000000D7H   SFRSYM    DATA     BYTE      T2L
      000000D2H   SFRSYM    DATA     BYTE      TH4
      000000D3H   SFRSYM    DATA     BYTE      TL4
      000000D4H   SFRSYM    DATA     BYTE      TH3
      000000D5H   SFRSYM    DATA     BYTE      TL3
      000000D6H   SFRSYM    DATA     BYTE      TH2
      000000D7H   SFRSYM    DATA     BYTE      TL2
      000000D2H   SFRSYM    DATA     BYTE      RL_T4H
      000000D3H   SFRSYM    DATA     BYTE      RL_T4L
      000000D4H   SFRSYM    DATA     BYTE      RL_T3H
      000000D5H   SFRSYM    DATA     BYTE      RL_T3L
      000000D6H   SFRSYM    DATA     BYTE      RL_T2H
      000000D7H   SFRSYM    DATA     BYTE      RL_T2L
      000000D8H   SFRSYM    DATA     BYTE      CCON
LX51 LINKER/LOCATER V4.41                                                             11/18/2015  10:20:10  PAGE 59


      000000D9H   SFRSYM    DATA     BYTE      CMOD
      000000DAH   SFRSYM    DATA     BYTE      CCAPM0
      000000DBH   SFRSYM    DATA     BYTE      CCAPM1
      000000DCH   SFRSYM    DATA     BYTE      CCAPM2
      000000E0H   SFRSYM    DATA     BYTE      ACC
      000000E1H   SFRSYM    DATA     BYTE      P7M1
      000000E2H   SFRSYM    DATA     BYTE      P7M0
      000000E8H   SFRSYM    DATA     BYTE      P6
      000000E9H   SFRSYM    DATA     BYTE      CL
      000000EAH   SFRSYM    DATA     BYTE      CCAP0L
      000000EBH   SFRSYM    DATA     BYTE      CCAP1L
      000000ECH   SFRSYM    DATA     BYTE      CCAP2L
      000000F0H   SFRSYM    DATA     BYTE      B
      000000F2H   SFRSYM    DATA     BYTE      PCA_PWM0
      000000F3H   SFRSYM    DATA     BYTE      PCA_PWM1
      000000F4H   SFRSYM    DATA     BYTE      PCA_PWM2
      000000F8H   SFRSYM    DATA     BYTE      P7
      000000F9H   SFRSYM    DATA     BYTE      CH
      000000FAH   SFRSYM    DATA     BYTE      CCAP0H
      000000FBH   SFRSYM    DATA     BYTE      CCAP1H
      000000FCH   SFRSYM    DATA     BYTE      CCAP2H
      000000D0H.7 SFRSYM    DATA     BIT       CY
      000000D0H.6 SFRSYM    DATA     BIT       AC
      000000D0H.5 SFRSYM    DATA     BIT       F0
      000000D0H.4 SFRSYM    DATA     BIT       RS1
      000000D0H.3 SFRSYM    DATA     BIT       RS0
      000000D0H.2 SFRSYM    DATA     BIT       OV
      000000D0H.1 SFRSYM    DATA     BIT       F1
      000000D0H   SFRSYM    DATA     BIT       P
      00000088H.7 SFRSYM    DATA     BIT       TF1
      00000088H.6 SFRSYM    DATA     BIT       TR1
      00000088H.5 SFRSYM    DATA     BIT       TF0
      00000088H.4 SFRSYM    DATA     BIT       TR0
      00000088H.3 SFRSYM    DATA     BIT       IE1
      00000088H.2 SFRSYM    DATA     BIT       IT1
      00000088H.1 SFRSYM    DATA     BIT       IE0
      00000088H   SFRSYM    DATA     BIT       IT0
      00000080H   SFRSYM    DATA     BIT       P00
      00000080H.1 SFRSYM    DATA     BIT       P01
      00000080H.2 SFRSYM    DATA     BIT       P02
      00000080H.3 SFRSYM    DATA     BIT       P03
      00000080H.4 SFRSYM    DATA     BIT       P04
      00000080H.5 SFRSYM    DATA     BIT       P05
      00000080H.6 SFRSYM    DATA     BIT       P06
      00000080H.7 SFRSYM    DATA     BIT       P07
      00000090H   SFRSYM    DATA     BIT       P10
      00000090H.1 SFRSYM    DATA     BIT       P11
      00000090H.2 SFRSYM    DATA     BIT       P12
      00000090H.3 SFRSYM    DATA     BIT       P13
      00000090H.4 SFRSYM    DATA     BIT       P14
      00000090H.5 SFRSYM    DATA     BIT       P15
      00000090H.6 SFRSYM    DATA     BIT       P16
      00000090H.7 SFRSYM    DATA     BIT       P17
      00000090H   SFRSYM    DATA     BIT       RXD2
      00000090H.1 SFRSYM    DATA     BIT       TXD2
      00000090H   SFRSYM    DATA     BIT       CCP1
      00000090H.1 SFRSYM    DATA     BIT       CCP0
      00000090H.2 SFRSYM    DATA     BIT       SPI_SS
      00000090H.3 SFRSYM    DATA     BIT       SPI_MOSI
      00000090H.4 SFRSYM    DATA     BIT       SPI_MISO
      00000090H.5 SFRSYM    DATA     BIT       SPI_SCLK
      000000A0H.4 SFRSYM    DATA     BIT       SPI_SS_2
      000000A0H.3 SFRSYM    DATA     BIT       SPI_MOSI_2
      000000A0H.2 SFRSYM    DATA     BIT       SPI_MISO_2
      000000A0H.1 SFRSYM    DATA     BIT       SPI_SCLK_2
LX51 LINKER/LOCATER V4.41                                                             11/18/2015  10:20:10  PAGE 60


      000000C8H.4 SFRSYM    DATA     BIT       SPI_SS_3
      000000C0H   SFRSYM    DATA     BIT       SPI_MOSI_3
      000000C0H.1 SFRSYM    DATA     BIT       SPI_MISO_3
      000000C0H.3 SFRSYM    DATA     BIT       SPI_SCLK_3
      000000A0H   SFRSYM    DATA     BIT       P20
      000000A0H.1 SFRSYM    DATA     BIT       P21
      000000A0H.2 SFRSYM    DATA     BIT       P22
      000000A0H.3 SFRSYM    DATA     BIT       P23
      000000A0H.4 SFRSYM    DATA     BIT       P24
      000000A0H.5 SFRSYM    DATA     BIT       P25
      000000A0H.6 SFRSYM    DATA     BIT       P26
      000000A0H.7 SFRSYM    DATA     BIT       P27
      000000B0H   SFRSYM    DATA     BIT       P30
      000000B0H.1 SFRSYM    DATA     BIT       P31
      000000B0H.2 SFRSYM    DATA     BIT       P32
      000000B0H.3 SFRSYM    DATA     BIT       P33
      000000B0H.4 SFRSYM    DATA     BIT       P34
      000000B0H.5 SFRSYM    DATA     BIT       P35
      000000B0H.6 SFRSYM    DATA     BIT       P36
      000000B0H.7 SFRSYM    DATA     BIT       P37
      000000B0H   SFRSYM    DATA     BIT       RXD
      000000B0H.1 SFRSYM    DATA     BIT       TXD
      000000B0H.2 SFRSYM    DATA     BIT       INT0
      000000B0H.3 SFRSYM    DATA     BIT       INT1
      000000B0H.4 SFRSYM    DATA     BIT       T0
      000000B0H.5 SFRSYM    DATA     BIT       T1
      000000B0H.6 SFRSYM    DATA     BIT       WR
      000000B0H.7 SFRSYM    DATA     BIT       RD
      000000B0H.7 SFRSYM    DATA     BIT       CCP2
      000000B0H.5 SFRSYM    DATA     BIT       CLKOUT0
      000000B0H.4 SFRSYM    DATA     BIT       CLKOUT1
      000000C0H   SFRSYM    DATA     BIT       P40
      000000C0H.1 SFRSYM    DATA     BIT       P41
      000000C0H.2 SFRSYM    DATA     BIT       P42
      000000C0H.3 SFRSYM    DATA     BIT       P43
      000000C0H.4 SFRSYM    DATA     BIT       P44
      000000C0H.5 SFRSYM    DATA     BIT       P45
      000000C0H.6 SFRSYM    DATA     BIT       P46
      000000C0H.7 SFRSYM    DATA     BIT       P47
      000000C8H   SFRSYM    DATA     BIT       P50
      000000C8H.1 SFRSYM    DATA     BIT       P51
      000000C8H.2 SFRSYM    DATA     BIT       P52
      000000C8H.3 SFRSYM    DATA     BIT       P53
      000000C8H.4 SFRSYM    DATA     BIT       P54
      000000C8H.5 SFRSYM    DATA     BIT       P55
      000000C8H.6 SFRSYM    DATA     BIT       P56
      000000C8H.7 SFRSYM    DATA     BIT       P57
      00000098H.7 SFRSYM    DATA     BIT       SM0
      00000098H.6 SFRSYM    DATA     BIT       SM1
      00000098H.5 SFRSYM    DATA     BIT       SM2
      00000098H.4 SFRSYM    DATA     BIT       REN
      00000098H.3 SFRSYM    DATA     BIT       TB8
      00000098H.2 SFRSYM    DATA     BIT       RB8
      00000098H.1 SFRSYM    DATA     BIT       TI
      00000098H   SFRSYM    DATA     BIT       RI
      000000A8H.7 SFRSYM    DATA     BIT       EA
      000000A8H.6 SFRSYM    DATA     BIT       ELVD
      000000A8H.5 SFRSYM    DATA     BIT       EADC
      000000A8H.4 SFRSYM    DATA     BIT       ES
      000000A8H.3 SFRSYM    DATA     BIT       ET1
      000000A8H.2 SFRSYM    DATA     BIT       EX1
      000000A8H.1 SFRSYM    DATA     BIT       ET0
      000000A8H   SFRSYM    DATA     BIT       EX0
      000000E0H   SFRSYM    DATA     BIT       ACC0
      000000E0H.1 SFRSYM    DATA     BIT       ACC1
LX51 LINKER/LOCATER V4.41                                                             11/18/2015  10:20:10  PAGE 61


      000000E0H.2 SFRSYM    DATA     BIT       ACC2
      000000E0H.3 SFRSYM    DATA     BIT       ACC3
      000000E0H.4 SFRSYM    DATA     BIT       ACC4
      000000E0H.5 SFRSYM    DATA     BIT       ACC5
      000000E0H.6 SFRSYM    DATA     BIT       ACC6
      000000E0H.7 SFRSYM    DATA     BIT       ACC7
      000000F0H   SFRSYM    DATA     BIT       B0
      000000F0H.1 SFRSYM    DATA     BIT       B1
      000000F0H.2 SFRSYM    DATA     BIT       B2
      000000F0H.3 SFRSYM    DATA     BIT       B3
      000000F0H.4 SFRSYM    DATA     BIT       B4
      000000F0H.5 SFRSYM    DATA     BIT       B5
      000000F0H.6 SFRSYM    DATA     BIT       B6
      000000F0H.7 SFRSYM    DATA     BIT       B7
      000000B8H.7 SFRSYM    DATA     BIT       PPCA
      000000B8H.6 SFRSYM    DATA     BIT       PLVD
      000000B8H.5 SFRSYM    DATA     BIT       PADC
      000000B8H.4 SFRSYM    DATA     BIT       PS
      000000B8H.3 SFRSYM    DATA     BIT       PT1
      000000B8H.2 SFRSYM    DATA     BIT       PX1
      000000B8H.1 SFRSYM    DATA     BIT       PT0
      000000B8H   SFRSYM    DATA     BIT       PX0
      000000D8H   SFRSYM    DATA     BIT       CCF0
      000000D8H.1 SFRSYM    DATA     BIT       CCF1
      000000D8H.2 SFRSYM    DATA     BIT       CCF2
      000000D8H.6 SFRSYM    DATA     BIT       CR
      000000D8H.7 SFRSYM    DATA     BIT       CF

      01000046H   BLOCK     CODE     ---       LVL=0
      01000046H   BLOCK     CODE     NEAR LAB  LVL=1
      00000007H   SYMBOL    DATA     BYTE      val
      ---         BLOCKEND  ---      ---       LVL=1
      01000046H   LINE      CODE     ---       #7
      01000046H   LINE      CODE     ---       #8
      01000046H   LINE      CODE     ---       #9
      01000048H   LINE      CODE     ---       #11
      01000061H   LINE      CODE     ---       #13
      01000061H   LINE      CODE     ---       #14
      ---         BLOCKEND  ---      ---       LVL=0

      01003A76H   BLOCK     CODE     ---       LVL=0
      01003A76H   BLOCK     CODE     NEAR LAB  LVL=1
      00000007H   SYMBOL    DATA     BYTE      val
      ---         BLOCKEND  ---      ---       LVL=1
      01003A76H   LINE      CODE     ---       #18
      01003A76H   LINE      CODE     ---       #19
      01003A76H   LINE      CODE     ---       #20
      01003A77H   LINE      CODE     ---       #22
      01003A91H   LINE      CODE     ---       #24
      01003A91H   LINE      CODE     ---       #25
      ---         BLOCKEND  ---      ---       LVL=0

      01003B55H   BLOCK     CODE     ---       LVL=0
      01003B55H   BLOCK     CODE     NEAR LAB  LVL=1
      00000007H   SYMBOL    DATA     BYTE      val
      ---         BLOCKEND  ---      ---       LVL=1
      01003B55H   LINE      CODE     ---       #28
      01003B55H   LINE      CODE     ---       #29
      01003B55H   LINE      CODE     ---       #30
      01003B57H   LINE      CODE     ---       #32
      01003B5EH   LINE      CODE     ---       #34
      01003B5EH   LINE      CODE     ---       #35
      ---         BLOCKEND  ---      ---       LVL=0

      ---         MODULE    ---      ---       MSG_PROTOCOL
LX51 LINKER/LOCATER V4.41                                                             11/18/2015  10:20:10  PAGE 62


      01002B2DH   PUBLIC    CODE     ---       protocol_action
      02000309H   PUBLIC    XDATA    BYTE      ?_get_alarm_msg?BYTE
      01000B96H   PUBLIC    CODE     ---       _get_alarm_msg
      02000309H   PUBLIC    XDATA    BYTE      ?_frame_anlayze?BYTE
      01001739H   PUBLIC    CODE     ---       _frame_anlayze
      00000080H   SFRSYM    DATA     BYTE      P0
      00000081H   SFRSYM    DATA     BYTE      SP
      00000082H   SFRSYM    DATA     BYTE      DPL
      00000083H   SFRSYM    DATA     BYTE      DPH
      00000084H   SFRSYM    DATA     BYTE      S4CON
      00000085H   SFRSYM    DATA     BYTE      S4BUF
      00000087H   SFRSYM    DATA     BYTE      PCON
      00000088H   SFRSYM    DATA     BYTE      TCON
      00000089H   SFRSYM    DATA     BYTE      TMOD
      0000008AH   SFRSYM    DATA     BYTE      TL0
      0000008BH   SFRSYM    DATA     BYTE      TL1
      0000008CH   SFRSYM    DATA     BYTE      TH0
      0000008DH   SFRSYM    DATA     BYTE      TH1
      0000008EH   SFRSYM    DATA     BYTE      AUXR
      0000008FH   SFRSYM    DATA     BYTE      WAKE_CLKO
      0000008FH   SFRSYM    DATA     BYTE      INT_CLKO
      0000008FH   SFRSYM    DATA     BYTE      AUXR2
      0000008AH   SFRSYM    DATA     BYTE      RL_TL0
      0000008BH   SFRSYM    DATA     BYTE      RL_TL1
      0000008CH   SFRSYM    DATA     BYTE      RL_TH0
      0000008DH   SFRSYM    DATA     BYTE      RL_TH1
      00000090H   SFRSYM    DATA     BYTE      P1
      00000091H   SFRSYM    DATA     BYTE      P1M1
      00000092H   SFRSYM    DATA     BYTE      P1M0
      00000093H   SFRSYM    DATA     BYTE      P0M1
      00000094H   SFRSYM    DATA     BYTE      P0M0
      00000095H   SFRSYM    DATA     BYTE      P2M1
      00000096H   SFRSYM    DATA     BYTE      P2M0
      00000097H   SFRSYM    DATA     BYTE      CLK_DIV
      00000097H   SFRSYM    DATA     BYTE      PCON2
      00000098H   SFRSYM    DATA     BYTE      SCON
      00000099H   SFRSYM    DATA     BYTE      SBUF
      0000009AH   SFRSYM    DATA     BYTE      S2CON
      0000009BH   SFRSYM    DATA     BYTE      S2BUF
      0000009DH   SFRSYM    DATA     BYTE      P1ASF
      000000A0H   SFRSYM    DATA     BYTE      P2
      000000A1H   SFRSYM    DATA     BYTE      BUS_SPEED
      000000A2H   SFRSYM    DATA     BYTE      AUXR1
      000000A2H   SFRSYM    DATA     BYTE      P_SW1
      000000A8H   SFRSYM    DATA     BYTE      IE
      000000A9H   SFRSYM    DATA     BYTE      SADDR
      000000AAH   SFRSYM    DATA     BYTE      WKTCL
      000000ABH   SFRSYM    DATA     BYTE      WKTCH
      000000ACH   SFRSYM    DATA     BYTE      S3CON
      000000ADH   SFRSYM    DATA     BYTE      S3BUF
      000000AFH   SFRSYM    DATA     BYTE      IE2
      000000B0H   SFRSYM    DATA     BYTE      P3
      000000B1H   SFRSYM    DATA     BYTE      P3M1
      000000B2H   SFRSYM    DATA     BYTE      P3M0
      000000B3H   SFRSYM    DATA     BYTE      P4M1
      000000B4H   SFRSYM    DATA     BYTE      P4M0
      000000B5H   SFRSYM    DATA     BYTE      IP2
      000000B6H   SFRSYM    DATA     BYTE      IPH2
      000000B7H   SFRSYM    DATA     BYTE      IPH
      000000B8H   SFRSYM    DATA     BYTE      IP
      000000B9H   SFRSYM    DATA     BYTE      SADEN
      000000BAH   SFRSYM    DATA     BYTE      P_SW2
      000000BCH   SFRSYM    DATA     BYTE      ADC_CONTR
      000000BDH   SFRSYM    DATA     BYTE      ADC_RES
      000000BEH   SFRSYM    DATA     BYTE      ADC_RESL
LX51 LINKER/LOCATER V4.41                                                             11/18/2015  10:20:10  PAGE 63


      000000C0H   SFRSYM    DATA     BYTE      P4
      000000C1H   SFRSYM    DATA     BYTE      WDT_CONTR
      000000C2H   SFRSYM    DATA     BYTE      IAP_DATA
      000000C3H   SFRSYM    DATA     BYTE      IAP_ADDRH
      000000C4H   SFRSYM    DATA     BYTE      IAP_ADDRL
      000000C5H   SFRSYM    DATA     BYTE      IAP_CMD
      000000C6H   SFRSYM    DATA     BYTE      IAP_TRIG
      000000C7H   SFRSYM    DATA     BYTE      IAP_CONTR
      000000C2H   SFRSYM    DATA     BYTE      ISP_DATA
      000000C3H   SFRSYM    DATA     BYTE      ISP_ADDRH
      000000C4H   SFRSYM    DATA     BYTE      ISP_ADDRL
      000000C5H   SFRSYM    DATA     BYTE      ISP_CMD
      000000C6H   SFRSYM    DATA     BYTE      ISP_TRIG
      000000C7H   SFRSYM    DATA     BYTE      ISP_CONTR
      000000C8H   SFRSYM    DATA     BYTE      P5
      000000C9H   SFRSYM    DATA     BYTE      P5M1
      000000CAH   SFRSYM    DATA     BYTE      P5M0
      000000CBH   SFRSYM    DATA     BYTE      P6M1
      000000CCH   SFRSYM    DATA     BYTE      P6M0
      000000CDH   SFRSYM    DATA     BYTE      SPSTAT
      000000CEH   SFRSYM    DATA     BYTE      SPCTL
      000000CFH   SFRSYM    DATA     BYTE      SPDAT
      000000D0H   SFRSYM    DATA     BYTE      PSW
      000000D1H   SFRSYM    DATA     BYTE      T4T3M
      000000D2H   SFRSYM    DATA     BYTE      T4H
      000000D3H   SFRSYM    DATA     BYTE      T4L
      000000D4H   SFRSYM    DATA     BYTE      T3H
      000000D5H   SFRSYM    DATA     BYTE      T3L
      000000D6H   SFRSYM    DATA     BYTE      T2H
      000000D7H   SFRSYM    DATA     BYTE      T2L
      000000D2H   SFRSYM    DATA     BYTE      TH4
      000000D3H   SFRSYM    DATA     BYTE      TL4
      000000D4H   SFRSYM    DATA     BYTE      TH3
      000000D5H   SFRSYM    DATA     BYTE      TL3
      000000D6H   SFRSYM    DATA     BYTE      TH2
      000000D7H   SFRSYM    DATA     BYTE      TL2
      000000D2H   SFRSYM    DATA     BYTE      RL_T4H
      000000D3H   SFRSYM    DATA     BYTE      RL_T4L
      000000D4H   SFRSYM    DATA     BYTE      RL_T3H
      000000D5H   SFRSYM    DATA     BYTE      RL_T3L
      000000D6H   SFRSYM    DATA     BYTE      RL_T2H
      000000D7H   SFRSYM    DATA     BYTE      RL_T2L
      000000D8H   SFRSYM    DATA     BYTE      CCON
      000000D9H   SFRSYM    DATA     BYTE      CMOD
      000000DAH   SFRSYM    DATA     BYTE      CCAPM0
      000000DBH   SFRSYM    DATA     BYTE      CCAPM1
      000000DCH   SFRSYM    DATA     BYTE      CCAPM2
      000000E0H   SFRSYM    DATA     BYTE      ACC
      000000E1H   SFRSYM    DATA     BYTE      P7M1
      000000E2H   SFRSYM    DATA     BYTE      P7M0
      000000E8H   SFRSYM    DATA     BYTE      P6
      000000E9H   SFRSYM    DATA     BYTE      CL
      000000EAH   SFRSYM    DATA     BYTE      CCAP0L
      000000EBH   SFRSYM    DATA     BYTE      CCAP1L
      000000ECH   SFRSYM    DATA     BYTE      CCAP2L
      000000F0H   SFRSYM    DATA     BYTE      B
      000000F2H   SFRSYM    DATA     BYTE      PCA_PWM0
      000000F3H   SFRSYM    DATA     BYTE      PCA_PWM1
      000000F4H   SFRSYM    DATA     BYTE      PCA_PWM2
      000000F8H   SFRSYM    DATA     BYTE      P7
      000000F9H   SFRSYM    DATA     BYTE      CH
      000000FAH   SFRSYM    DATA     BYTE      CCAP0H
      000000FBH   SFRSYM    DATA     BYTE      CCAP1H
      000000FCH   SFRSYM    DATA     BYTE      CCAP2H
      000000D0H.7 SFRSYM    DATA     BIT       CY
LX51 LINKER/LOCATER V4.41                                                             11/18/2015  10:20:10  PAGE 64


      000000D0H.6 SFRSYM    DATA     BIT       AC
      000000D0H.5 SFRSYM    DATA     BIT       F0
      000000D0H.4 SFRSYM    DATA     BIT       RS1
      000000D0H.3 SFRSYM    DATA     BIT       RS0
      000000D0H.2 SFRSYM    DATA     BIT       OV
      000000D0H.1 SFRSYM    DATA     BIT       F1
      000000D0H   SFRSYM    DATA     BIT       P
      00000088H.7 SFRSYM    DATA     BIT       TF1
      00000088H.6 SFRSYM    DATA     BIT       TR1
      00000088H.5 SFRSYM    DATA     BIT       TF0
      00000088H.4 SFRSYM    DATA     BIT       TR0
      00000088H.3 SFRSYM    DATA     BIT       IE1
      00000088H.2 SFRSYM    DATA     BIT       IT1
      00000088H.1 SFRSYM    DATA     BIT       IE0
      00000088H   SFRSYM    DATA     BIT       IT0
      00000080H   SFRSYM    DATA     BIT       P00
      00000080H.1 SFRSYM    DATA     BIT       P01
      00000080H.2 SFRSYM    DATA     BIT       P02
      00000080H.3 SFRSYM    DATA     BIT       P03
      00000080H.4 SFRSYM    DATA     BIT       P04
      00000080H.5 SFRSYM    DATA     BIT       P05
      00000080H.6 SFRSYM    DATA     BIT       P06
      00000080H.7 SFRSYM    DATA     BIT       P07
      00000090H   SFRSYM    DATA     BIT       P10
      00000090H.1 SFRSYM    DATA     BIT       P11
      00000090H.2 SFRSYM    DATA     BIT       P12
      00000090H.3 SFRSYM    DATA     BIT       P13
      00000090H.4 SFRSYM    DATA     BIT       P14
      00000090H.5 SFRSYM    DATA     BIT       P15
      00000090H.6 SFRSYM    DATA     BIT       P16
      00000090H.7 SFRSYM    DATA     BIT       P17
      00000090H   SFRSYM    DATA     BIT       RXD2
      00000090H.1 SFRSYM    DATA     BIT       TXD2
      00000090H   SFRSYM    DATA     BIT       CCP1
      00000090H.1 SFRSYM    DATA     BIT       CCP0
      00000090H.2 SFRSYM    DATA     BIT       SPI_SS
      00000090H.3 SFRSYM    DATA     BIT       SPI_MOSI
      00000090H.4 SFRSYM    DATA     BIT       SPI_MISO
      00000090H.5 SFRSYM    DATA     BIT       SPI_SCLK
      000000A0H.4 SFRSYM    DATA     BIT       SPI_SS_2
      000000A0H.3 SFRSYM    DATA     BIT       SPI_MOSI_2
      000000A0H.2 SFRSYM    DATA     BIT       SPI_MISO_2
      000000A0H.1 SFRSYM    DATA     BIT       SPI_SCLK_2
      000000C8H.4 SFRSYM    DATA     BIT       SPI_SS_3
      000000C0H   SFRSYM    DATA     BIT       SPI_MOSI_3
      000000C0H.1 SFRSYM    DATA     BIT       SPI_MISO_3
      000000C0H.3 SFRSYM    DATA     BIT       SPI_SCLK_3
      000000A0H   SFRSYM    DATA     BIT       P20
      000000A0H.1 SFRSYM    DATA     BIT       P21
      000000A0H.2 SFRSYM    DATA     BIT       P22
      000000A0H.3 SFRSYM    DATA     BIT       P23
      000000A0H.4 SFRSYM    DATA     BIT       P24
      000000A0H.5 SFRSYM    DATA     BIT       P25
      000000A0H.6 SFRSYM    DATA     BIT       P26
      000000A0H.7 SFRSYM    DATA     BIT       P27
      000000B0H   SFRSYM    DATA     BIT       P30
      000000B0H.1 SFRSYM    DATA     BIT       P31
      000000B0H.2 SFRSYM    DATA     BIT       P32
      000000B0H.3 SFRSYM    DATA     BIT       P33
      000000B0H.4 SFRSYM    DATA     BIT       P34
      000000B0H.5 SFRSYM    DATA     BIT       P35
      000000B0H.6 SFRSYM    DATA     BIT       P36
      000000B0H.7 SFRSYM    DATA     BIT       P37
      000000B0H   SFRSYM    DATA     BIT       RXD
      000000B0H.1 SFRSYM    DATA     BIT       TXD
LX51 LINKER/LOCATER V4.41                                                             11/18/2015  10:20:10  PAGE 65


      000000B0H.2 SFRSYM    DATA     BIT       INT0
      000000B0H.3 SFRSYM    DATA     BIT       INT1
      000000B0H.4 SFRSYM    DATA     BIT       T0
      000000B0H.5 SFRSYM    DATA     BIT       T1
      000000B0H.6 SFRSYM    DATA     BIT       WR
      000000B0H.7 SFRSYM    DATA     BIT       RD
      000000B0H.7 SFRSYM    DATA     BIT       CCP2
      000000B0H.5 SFRSYM    DATA     BIT       CLKOUT0
      000000B0H.4 SFRSYM    DATA     BIT       CLKOUT1
      000000C0H   SFRSYM    DATA     BIT       P40
      000000C0H.1 SFRSYM    DATA     BIT       P41
      000000C0H.2 SFRSYM    DATA     BIT       P42
      000000C0H.3 SFRSYM    DATA     BIT       P43
      000000C0H.4 SFRSYM    DATA     BIT       P44
      000000C0H.5 SFRSYM    DATA     BIT       P45
      000000C0H.6 SFRSYM    DATA     BIT       P46
      000000C0H.7 SFRSYM    DATA     BIT       P47
      000000C8H   SFRSYM    DATA     BIT       P50
      000000C8H.1 SFRSYM    DATA     BIT       P51
      000000C8H.2 SFRSYM    DATA     BIT       P52
      000000C8H.3 SFRSYM    DATA     BIT       P53
      000000C8H.4 SFRSYM    DATA     BIT       P54
      000000C8H.5 SFRSYM    DATA     BIT       P55
      000000C8H.6 SFRSYM    DATA     BIT       P56
      000000C8H.7 SFRSYM    DATA     BIT       P57
      00000098H.7 SFRSYM    DATA     BIT       SM0
      00000098H.6 SFRSYM    DATA     BIT       SM1
      00000098H.5 SFRSYM    DATA     BIT       SM2
      00000098H.4 SFRSYM    DATA     BIT       REN
      00000098H.3 SFRSYM    DATA     BIT       TB8
      00000098H.2 SFRSYM    DATA     BIT       RB8
      00000098H.1 SFRSYM    DATA     BIT       TI
      00000098H   SFRSYM    DATA     BIT       RI
      000000A8H.7 SFRSYM    DATA     BIT       EA
      000000A8H.6 SFRSYM    DATA     BIT       ELVD
      000000A8H.5 SFRSYM    DATA     BIT       EADC
      000000A8H.4 SFRSYM    DATA     BIT       ES
      000000A8H.3 SFRSYM    DATA     BIT       ET1
      000000A8H.2 SFRSYM    DATA     BIT       EX1
      000000A8H.1 SFRSYM    DATA     BIT       ET0
      000000A8H   SFRSYM    DATA     BIT       EX0
      000000E0H   SFRSYM    DATA     BIT       ACC0
      000000E0H.1 SFRSYM    DATA     BIT       ACC1
      000000E0H.2 SFRSYM    DATA     BIT       ACC2
      000000E0H.3 SFRSYM    DATA     BIT       ACC3
      000000E0H.4 SFRSYM    DATA     BIT       ACC4
      000000E0H.5 SFRSYM    DATA     BIT       ACC5
      000000E0H.6 SFRSYM    DATA     BIT       ACC6
      000000E0H.7 SFRSYM    DATA     BIT       ACC7
      000000F0H   SFRSYM    DATA     BIT       B0
      000000F0H.1 SFRSYM    DATA     BIT       B1
      000000F0H.2 SFRSYM    DATA     BIT       B2
      000000F0H.3 SFRSYM    DATA     BIT       B3
      000000F0H.4 SFRSYM    DATA     BIT       B4
      000000F0H.5 SFRSYM    DATA     BIT       B5
      000000F0H.6 SFRSYM    DATA     BIT       B6
      000000F0H.7 SFRSYM    DATA     BIT       B7
      000000B8H.7 SFRSYM    DATA     BIT       PPCA
      000000B8H.6 SFRSYM    DATA     BIT       PLVD
      000000B8H.5 SFRSYM    DATA     BIT       PADC
      000000B8H.4 SFRSYM    DATA     BIT       PS
      000000B8H.3 SFRSYM    DATA     BIT       PT1
      000000B8H.2 SFRSYM    DATA     BIT       PX1
      000000B8H.1 SFRSYM    DATA     BIT       PT0
      000000B8H   SFRSYM    DATA     BIT       PX0
LX51 LINKER/LOCATER V4.41                                                             11/18/2015  10:20:10  PAGE 66


      000000D8H   SFRSYM    DATA     BIT       CCF0
      000000D8H.1 SFRSYM    DATA     BIT       CCF1
      000000D8H.2 SFRSYM    DATA     BIT       CCF2
      000000D8H.6 SFRSYM    DATA     BIT       CR
      000000D8H.7 SFRSYM    DATA     BIT       CF
      01003B6CH   SYMBOL    CONST    ---       _?ix1000
      01003B74H   SYMBOL    CONST    ---       _?ix1001
      01003B7EH   SYMBOL    CONST    ---       _?ix1002
      01003BB0H   SYMBOL    CONST    ---       _?ix1003

      01001739H   BLOCK     CODE     ---       LVL=0
      02000309H   SYMBOL    XDATA    ---       rx_data
      0200030CH   SYMBOL    XDATA    ---       frame
      01001744H   BLOCK     CODE     NEAR LAB  LVL=1
      0200030FH   SYMBOL    XDATA    BYTE      data_len
      02000310H   SYMBOL    XDATA    BYTE      i
      02000311H   SYMBOL    XDATA    BYTE      crc
      ---         BLOCKEND  ---      ---       LVL=1
      01001739H   LINE      CODE     ---       #17
      01001744H   LINE      CODE     ---       #18
      01001744H   LINE      CODE     ---       #19
      0100174BH   LINE      CODE     ---       #20
      0100174DH   LINE      CODE     ---       #22
      0100176BH   LINE      CODE     ---       #23
      0100179AH   LINE      CODE     ---       #24
      010017C9H   LINE      CODE     ---       #25
      010017F8H   LINE      CODE     ---       #26
      0100181CH   LINE      CODE     ---       #27
      0100184BH   LINE      CODE     ---       #29
      01001858H   LINE      CODE     ---       #30
      0100188BH   LINE      CODE     ---       #32
      01001892H   LINE      CODE     ---       #33
      010018BFH   LINE      CODE     ---       #34
      010018E9H   LINE      CODE     ---       #36
      ---         BLOCKEND  ---      ---       LVL=0

      01000B96H   BLOCK     CODE     ---       LVL=0
      02000309H   SYMBOL    XDATA    ---       rx_f
      0200030CH   SYMBOL    XDATA    ---       tx_data
      0200030FH   SYMBOL    XDATA    ---       tx_data_len
      01000BA1H   BLOCK     CODE     NEAR LAB  LVL=1
      02000312H   SYMBOL    XDATA    BYTE      crc_data_len
      02000313H   SYMBOL    XDATA    BYTE      crc
      02000314H   SYMBOL    XDATA    ---       tmp
      0200031CH   SYMBOL    XDATA    BYTE      i
      00000007H   SYMBOL    DATA     BYTE      rx_para1
      0200031DH   SYMBOL    XDATA    BYTE      rx_para2
      0200031EH   SYMBOL    XDATA    ---       tx_para2
      02000328H   SYMBOL    XDATA    BYTE      tx_para1
      02000329H   SYMBOL    XDATA    BYTE      para2_cnt
      0200032AH   SYMBOL    XDATA    WORD      tx_cmd
      0200032CH   SYMBOL    XDATA    WORD      data_len
      0200032EH   SYMBOL    XDATA    WORD      rx_cmd
      ---         BLOCKEND  ---      ---       LVL=1
      01000B96H   LINE      CODE     ---       #68
      01000BA1H   LINE      CODE     ---       #69
      01000BA1H   LINE      CODE     ---       #70
      01000BA8H   LINE      CODE     ---       #71
      01000BBFH   LINE      CODE     ---       #72
      01000BD8H   LINE      CODE     ---       #73
      01000BDAH   LINE      CODE     ---       #74
      01000BE7H   LINE      CODE     ---       #75
      01000BEBH   LINE      CODE     ---       #77
      01000BFDH   LINE      CODE     ---       #78
      01000C07H   LINE      CODE     ---       #80
LX51 LINKER/LOCATER V4.41                                                             11/18/2015  10:20:10  PAGE 67


      01000C10H   LINE      CODE     ---       #81
      01000C1FH   LINE      CODE     ---       #82
      01000C1FH   LINE      CODE     ---       #83
      01000C2DH   LINE      CODE     ---       #84
      01000C2DH   LINE      CODE     ---       #85
      01000C46H   LINE      CODE     ---       #86
      01000C65H   LINE      CODE     ---       #87
      01000C6BH   LINE      CODE     ---       #88
      01000C6BH   LINE      CODE     ---       #89
      01000C73H   LINE      CODE     ---       #91
      01000C7EH   LINE      CODE     ---       #92
      01000C7EH   LINE      CODE     ---       #93
      01000C83H   LINE      CODE     ---       #94
      01000C92H   LINE      CODE     ---       #95
      01000C92H   LINE      CODE     ---       #96
      01000C99H   LINE      CODE     ---       #97
      01000C99H   LINE      CODE     ---       #98
      01000CAEH   LINE      CODE     ---       #99
      01000CB0H   LINE      CODE     ---       #101
      01000CB0H   LINE      CODE     ---       #102
      01000CC8H   LINE      CODE     ---       #103
      01000CC8H   LINE      CODE     ---       #106
      01000CE1H   LINE      CODE     ---       #107
      01000CF6H   LINE      CODE     ---       #108
      01000CFEH   LINE      CODE     ---       #109
      01000CFEH   LINE      CODE     ---       #111
      01000D0EH   LINE      CODE     ---       #112
      01000D1EH   LINE      CODE     ---       #113
      01000D38H   LINE      CODE     ---       #114
      01000D3FH   LINE      CODE     ---       #115
      01000D65H   LINE      CODE     ---       #116
      01000D89H   LINE      CODE     ---       #117
      01000D91H   LINE      CODE     ---       #118
      01000DA0H   LINE      CODE     ---       #119
      01000DA7H   LINE      CODE     ---       #120
      01000DCDH   LINE      CODE     ---       #121
      01000DF1H   LINE      CODE     ---       #122
      01000DFBH   LINE      CODE     ---       #123
      01000E0EH   LINE      CODE     ---       #124
      01000E0EH   LINE      CODE     ---       #125
      01000E34H   LINE      CODE     ---       #126
      01000E3CH   LINE      CODE     ---       #128
      01000E47H   LINE      CODE     ---       #129
      01000E68H   LINE      CODE     ---       #131
      01000E98H   LINE      CODE     ---       #132
      01000EA5H   LINE      CODE     ---       #133
      ---         BLOCKEND  ---      ---       LVL=0

      01002B2DH   BLOCK     CODE     ---       LVL=0
      01002B2DH   BLOCK     CODE     NEAR LAB  LVL=1
      02000223H   SYMBOL    XDATA    ---       frame_struct
      02000262H   SYMBOL    XDATA    ---       frame_struct2
      020002A1H   SYMBOL    XDATA    ---       rx_data
      020002D3H   SYMBOL    XDATA    ---       tx_data
      02000305H   SYMBOL    XDATA    BYTE      tx_data_len
      02000306H   SYMBOL    XDATA    WORD      cmd
      02000308H   SYMBOL    XDATA    BYTE      para_total
      ---         BLOCKEND  ---      ---       LVL=1
      01002B2DH   LINE      CODE     ---       #139
      01002B2DH   LINE      CODE     ---       #140
      01002B2DH   LINE      CODE     ---       #142
      01002B58H   LINE      CODE     ---       #143
      01002B5CH   LINE      CODE     ---       #144
      01002B5EH   LINE      CODE     ---       #146
      01002B6BH   LINE      CODE     ---       #148
LX51 LINKER/LOCATER V4.41                                                             11/18/2015  10:20:10  PAGE 68


      01002B74H   LINE      CODE     ---       #150
      01002B8BH   LINE      CODE     ---       #152
      01002B9FH   LINE      CODE     ---       #153
      01002B9FH   LINE      CODE     ---       #154
      01002B9FH   LINE      CODE     ---       #155
      01002BABH   LINE      CODE     ---       #156
      01002BABH   LINE      CODE     ---       #157
      01002BCCH   LINE      CODE     ---       #158
      01002BDAH   LINE      CODE     ---       #159
      01002BDAH   LINE      CODE     ---       #160
      01002BDAH   LINE      CODE     ---       #162
      01002BDAH   LINE      CODE     ---       #164
      ---         BLOCKEND  ---      ---       LVL=0

      ---         MODULE    ---      ---       EEPROMHL
      0100280BH   PUBLIC    CODE     ---       _ee1_copy_to_ee2
      010031B8H   PUBLIC    CODE     ---       _ee2_read_data
      0100313BH   PUBLIC    CODE     ---       _ee2_write_data
      010030BEH   PUBLIC    CODE     ---       _ee1_write_data
      00000080H   SFRSYM    DATA     BYTE      P0
      00000081H   SFRSYM    DATA     BYTE      SP
      00000082H   SFRSYM    DATA     BYTE      DPL
      00000083H   SFRSYM    DATA     BYTE      DPH
      00000084H   SFRSYM    DATA     BYTE      S4CON
      00000085H   SFRSYM    DATA     BYTE      S4BUF
      00000087H   SFRSYM    DATA     BYTE      PCON
      00000088H   SFRSYM    DATA     BYTE      TCON
      00000089H   SFRSYM    DATA     BYTE      TMOD
      0000008AH   SFRSYM    DATA     BYTE      TL0
      0000008BH   SFRSYM    DATA     BYTE      TL1
      0000008CH   SFRSYM    DATA     BYTE      TH0
      0000008DH   SFRSYM    DATA     BYTE      TH1
      0000008EH   SFRSYM    DATA     BYTE      AUXR
      0000008FH   SFRSYM    DATA     BYTE      WAKE_CLKO
      0000008FH   SFRSYM    DATA     BYTE      INT_CLKO
      0000008FH   SFRSYM    DATA     BYTE      AUXR2
      0000008AH   SFRSYM    DATA     BYTE      RL_TL0
      0000008BH   SFRSYM    DATA     BYTE      RL_TL1
      0000008CH   SFRSYM    DATA     BYTE      RL_TH0
      0000008DH   SFRSYM    DATA     BYTE      RL_TH1
      00000090H   SFRSYM    DATA     BYTE      P1
      00000091H   SFRSYM    DATA     BYTE      P1M1
      00000092H   SFRSYM    DATA     BYTE      P1M0
      00000093H   SFRSYM    DATA     BYTE      P0M1
      00000094H   SFRSYM    DATA     BYTE      P0M0
      00000095H   SFRSYM    DATA     BYTE      P2M1
      00000096H   SFRSYM    DATA     BYTE      P2M0
      00000097H   SFRSYM    DATA     BYTE      CLK_DIV
      00000097H   SFRSYM    DATA     BYTE      PCON2
      00000098H   SFRSYM    DATA     BYTE      SCON
      00000099H   SFRSYM    DATA     BYTE      SBUF
      0000009AH   SFRSYM    DATA     BYTE      S2CON
      0000009BH   SFRSYM    DATA     BYTE      S2BUF
      0000009DH   SFRSYM    DATA     BYTE      P1ASF
      000000A0H   SFRSYM    DATA     BYTE      P2
      000000A1H   SFRSYM    DATA     BYTE      BUS_SPEED
      000000A2H   SFRSYM    DATA     BYTE      AUXR1
      000000A2H   SFRSYM    DATA     BYTE      P_SW1
      000000A8H   SFRSYM    DATA     BYTE      IE
      000000A9H   SFRSYM    DATA     BYTE      SADDR
      000000AAH   SFRSYM    DATA     BYTE      WKTCL
      000000ABH   SFRSYM    DATA     BYTE      WKTCH
      000000ACH   SFRSYM    DATA     BYTE      S3CON
      000000ADH   SFRSYM    DATA     BYTE      S3BUF
      000000AFH   SFRSYM    DATA     BYTE      IE2
LX51 LINKER/LOCATER V4.41                                                             11/18/2015  10:20:10  PAGE 69


      000000B0H   SFRSYM    DATA     BYTE      P3
      000000B1H   SFRSYM    DATA     BYTE      P3M1
      000000B2H   SFRSYM    DATA     BYTE      P3M0
      000000B3H   SFRSYM    DATA     BYTE      P4M1
      000000B4H   SFRSYM    DATA     BYTE      P4M0
      000000B5H   SFRSYM    DATA     BYTE      IP2
      000000B6H   SFRSYM    DATA     BYTE      IPH2
      000000B7H   SFRSYM    DATA     BYTE      IPH
      000000B8H   SFRSYM    DATA     BYTE      IP
      000000B9H   SFRSYM    DATA     BYTE      SADEN
      000000BAH   SFRSYM    DATA     BYTE      P_SW2
      000000BCH   SFRSYM    DATA     BYTE      ADC_CONTR
      000000BDH   SFRSYM    DATA     BYTE      ADC_RES
      000000BEH   SFRSYM    DATA     BYTE      ADC_RESL
      000000C0H   SFRSYM    DATA     BYTE      P4
      000000C1H   SFRSYM    DATA     BYTE      WDT_CONTR
      000000C2H   SFRSYM    DATA     BYTE      IAP_DATA
      000000C3H   SFRSYM    DATA     BYTE      IAP_ADDRH
      000000C4H   SFRSYM    DATA     BYTE      IAP_ADDRL
      000000C5H   SFRSYM    DATA     BYTE      IAP_CMD
      000000C6H   SFRSYM    DATA     BYTE      IAP_TRIG
      000000C7H   SFRSYM    DATA     BYTE      IAP_CONTR
      000000C2H   SFRSYM    DATA     BYTE      ISP_DATA
      000000C3H   SFRSYM    DATA     BYTE      ISP_ADDRH
      000000C4H   SFRSYM    DATA     BYTE      ISP_ADDRL
      000000C5H   SFRSYM    DATA     BYTE      ISP_CMD
      000000C6H   SFRSYM    DATA     BYTE      ISP_TRIG
      000000C7H   SFRSYM    DATA     BYTE      ISP_CONTR
      000000C8H   SFRSYM    DATA     BYTE      P5
      000000C9H   SFRSYM    DATA     BYTE      P5M1
      000000CAH   SFRSYM    DATA     BYTE      P5M0
      000000CBH   SFRSYM    DATA     BYTE      P6M1
      000000CCH   SFRSYM    DATA     BYTE      P6M0
      000000CDH   SFRSYM    DATA     BYTE      SPSTAT
      000000CEH   SFRSYM    DATA     BYTE      SPCTL
      000000CFH   SFRSYM    DATA     BYTE      SPDAT
      000000D0H   SFRSYM    DATA     BYTE      PSW
      000000D1H   SFRSYM    DATA     BYTE      T4T3M
      000000D2H   SFRSYM    DATA     BYTE      T4H
      000000D3H   SFRSYM    DATA     BYTE      T4L
      000000D4H   SFRSYM    DATA     BYTE      T3H
      000000D5H   SFRSYM    DATA     BYTE      T3L
      000000D6H   SFRSYM    DATA     BYTE      T2H
      000000D7H   SFRSYM    DATA     BYTE      T2L
      000000D2H   SFRSYM    DATA     BYTE      TH4
      000000D3H   SFRSYM    DATA     BYTE      TL4
      000000D4H   SFRSYM    DATA     BYTE      TH3
      000000D5H   SFRSYM    DATA     BYTE      TL3
      000000D6H   SFRSYM    DATA     BYTE      TH2
      000000D7H   SFRSYM    DATA     BYTE      TL2
      000000D2H   SFRSYM    DATA     BYTE      RL_T4H
      000000D3H   SFRSYM    DATA     BYTE      RL_T4L
      000000D4H   SFRSYM    DATA     BYTE      RL_T3H
      000000D5H   SFRSYM    DATA     BYTE      RL_T3L
      000000D6H   SFRSYM    DATA     BYTE      RL_T2H
      000000D7H   SFRSYM    DATA     BYTE      RL_T2L
      000000D8H   SFRSYM    DATA     BYTE      CCON
      000000D9H   SFRSYM    DATA     BYTE      CMOD
      000000DAH   SFRSYM    DATA     BYTE      CCAPM0
      000000DBH   SFRSYM    DATA     BYTE      CCAPM1
      000000DCH   SFRSYM    DATA     BYTE      CCAPM2
      000000E0H   SFRSYM    DATA     BYTE      ACC
      000000E1H   SFRSYM    DATA     BYTE      P7M1
      000000E2H   SFRSYM    DATA     BYTE      P7M0
      000000E8H   SFRSYM    DATA     BYTE      P6
LX51 LINKER/LOCATER V4.41                                                             11/18/2015  10:20:10  PAGE 70


      000000E9H   SFRSYM    DATA     BYTE      CL
      000000EAH   SFRSYM    DATA     BYTE      CCAP0L
      000000EBH   SFRSYM    DATA     BYTE      CCAP1L
      000000ECH   SFRSYM    DATA     BYTE      CCAP2L
      000000F0H   SFRSYM    DATA     BYTE      B
      000000F2H   SFRSYM    DATA     BYTE      PCA_PWM0
      000000F3H   SFRSYM    DATA     BYTE      PCA_PWM1
      000000F4H   SFRSYM    DATA     BYTE      PCA_PWM2
      000000F8H   SFRSYM    DATA     BYTE      P7
      000000F9H   SFRSYM    DATA     BYTE      CH
      000000FAH   SFRSYM    DATA     BYTE      CCAP0H
      000000FBH   SFRSYM    DATA     BYTE      CCAP1H
      000000FCH   SFRSYM    DATA     BYTE      CCAP2H
      000000D0H.7 SFRSYM    DATA     BIT       CY
      000000D0H.6 SFRSYM    DATA     BIT       AC
      000000D0H.5 SFRSYM    DATA     BIT       F0
      000000D0H.4 SFRSYM    DATA     BIT       RS1
      000000D0H.3 SFRSYM    DATA     BIT       RS0
      000000D0H.2 SFRSYM    DATA     BIT       OV
      000000D0H.1 SFRSYM    DATA     BIT       F1
      000000D0H   SFRSYM    DATA     BIT       P
      00000088H.7 SFRSYM    DATA     BIT       TF1
      00000088H.6 SFRSYM    DATA     BIT       TR1
      00000088H.5 SFRSYM    DATA     BIT       TF0
      00000088H.4 SFRSYM    DATA     BIT       TR0
      00000088H.3 SFRSYM    DATA     BIT       IE1
      00000088H.2 SFRSYM    DATA     BIT       IT1
      00000088H.1 SFRSYM    DATA     BIT       IE0
      00000088H   SFRSYM    DATA     BIT       IT0
      00000080H   SFRSYM    DATA     BIT       P00
      00000080H.1 SFRSYM    DATA     BIT       P01
      00000080H.2 SFRSYM    DATA     BIT       P02
      00000080H.3 SFRSYM    DATA     BIT       P03
      00000080H.4 SFRSYM    DATA     BIT       P04
      00000080H.5 SFRSYM    DATA     BIT       P05
      00000080H.6 SFRSYM    DATA     BIT       P06
      00000080H.7 SFRSYM    DATA     BIT       P07
      00000090H   SFRSYM    DATA     BIT       P10
      00000090H.1 SFRSYM    DATA     BIT       P11
      00000090H.2 SFRSYM    DATA     BIT       P12
      00000090H.3 SFRSYM    DATA     BIT       P13
      00000090H.4 SFRSYM    DATA     BIT       P14
      00000090H.5 SFRSYM    DATA     BIT       P15
      00000090H.6 SFRSYM    DATA     BIT       P16
      00000090H.7 SFRSYM    DATA     BIT       P17
      00000090H   SFRSYM    DATA     BIT       RXD2
      00000090H.1 SFRSYM    DATA     BIT       TXD2
      00000090H   SFRSYM    DATA     BIT       CCP1
      00000090H.1 SFRSYM    DATA     BIT       CCP0
      00000090H.2 SFRSYM    DATA     BIT       SPI_SS
      00000090H.3 SFRSYM    DATA     BIT       SPI_MOSI
      00000090H.4 SFRSYM    DATA     BIT       SPI_MISO
      00000090H.5 SFRSYM    DATA     BIT       SPI_SCLK
      000000A0H.4 SFRSYM    DATA     BIT       SPI_SS_2
      000000A0H.3 SFRSYM    DATA     BIT       SPI_MOSI_2
      000000A0H.2 SFRSYM    DATA     BIT       SPI_MISO_2
      000000A0H.1 SFRSYM    DATA     BIT       SPI_SCLK_2
      000000C8H.4 SFRSYM    DATA     BIT       SPI_SS_3
      000000C0H   SFRSYM    DATA     BIT       SPI_MOSI_3
      000000C0H.1 SFRSYM    DATA     BIT       SPI_MISO_3
      000000C0H.3 SFRSYM    DATA     BIT       SPI_SCLK_3
      000000A0H   SFRSYM    DATA     BIT       P20
      000000A0H.1 SFRSYM    DATA     BIT       P21
      000000A0H.2 SFRSYM    DATA     BIT       P22
      000000A0H.3 SFRSYM    DATA     BIT       P23
LX51 LINKER/LOCATER V4.41                                                             11/18/2015  10:20:10  PAGE 71


      000000A0H.4 SFRSYM    DATA     BIT       P24
      000000A0H.5 SFRSYM    DATA     BIT       P25
      000000A0H.6 SFRSYM    DATA     BIT       P26
      000000A0H.7 SFRSYM    DATA     BIT       P27
      000000B0H   SFRSYM    DATA     BIT       P30
      000000B0H.1 SFRSYM    DATA     BIT       P31
      000000B0H.2 SFRSYM    DATA     BIT       P32
      000000B0H.3 SFRSYM    DATA     BIT       P33
      000000B0H.4 SFRSYM    DATA     BIT       P34
      000000B0H.5 SFRSYM    DATA     BIT       P35
      000000B0H.6 SFRSYM    DATA     BIT       P36
      000000B0H.7 SFRSYM    DATA     BIT       P37
      000000B0H   SFRSYM    DATA     BIT       RXD
      000000B0H.1 SFRSYM    DATA     BIT       TXD
      000000B0H.2 SFRSYM    DATA     BIT       INT0
      000000B0H.3 SFRSYM    DATA     BIT       INT1
      000000B0H.4 SFRSYM    DATA     BIT       T0
      000000B0H.5 SFRSYM    DATA     BIT       T1
      000000B0H.6 SFRSYM    DATA     BIT       WR
      000000B0H.7 SFRSYM    DATA     BIT       RD
      000000B0H.7 SFRSYM    DATA     BIT       CCP2
      000000B0H.5 SFRSYM    DATA     BIT       CLKOUT0
      000000B0H.4 SFRSYM    DATA     BIT       CLKOUT1
      000000C0H   SFRSYM    DATA     BIT       P40
      000000C0H.1 SFRSYM    DATA     BIT       P41
      000000C0H.2 SFRSYM    DATA     BIT       P42
      000000C0H.3 SFRSYM    DATA     BIT       P43
      000000C0H.4 SFRSYM    DATA     BIT       P44
      000000C0H.5 SFRSYM    DATA     BIT       P45
      000000C0H.6 SFRSYM    DATA     BIT       P46
      000000C0H.7 SFRSYM    DATA     BIT       P47
      000000C8H   SFRSYM    DATA     BIT       P50
      000000C8H.1 SFRSYM    DATA     BIT       P51
      000000C8H.2 SFRSYM    DATA     BIT       P52
      000000C8H.3 SFRSYM    DATA     BIT       P53
      000000C8H.4 SFRSYM    DATA     BIT       P54
      000000C8H.5 SFRSYM    DATA     BIT       P55
      000000C8H.6 SFRSYM    DATA     BIT       P56
      000000C8H.7 SFRSYM    DATA     BIT       P57
      00000098H.7 SFRSYM    DATA     BIT       SM0
      00000098H.6 SFRSYM    DATA     BIT       SM1
      00000098H.5 SFRSYM    DATA     BIT       SM2
      00000098H.4 SFRSYM    DATA     BIT       REN
      00000098H.3 SFRSYM    DATA     BIT       TB8
      00000098H.2 SFRSYM    DATA     BIT       RB8
      00000098H.1 SFRSYM    DATA     BIT       TI
      00000098H   SFRSYM    DATA     BIT       RI
      000000A8H.7 SFRSYM    DATA     BIT       EA
      000000A8H.6 SFRSYM    DATA     BIT       ELVD
      000000A8H.5 SFRSYM    DATA     BIT       EADC
      000000A8H.4 SFRSYM    DATA     BIT       ES
      000000A8H.3 SFRSYM    DATA     BIT       ET1
      000000A8H.2 SFRSYM    DATA     BIT       EX1
      000000A8H.1 SFRSYM    DATA     BIT       ET0
      000000A8H   SFRSYM    DATA     BIT       EX0
      000000E0H   SFRSYM    DATA     BIT       ACC0
      000000E0H.1 SFRSYM    DATA     BIT       ACC1
      000000E0H.2 SFRSYM    DATA     BIT       ACC2
      000000E0H.3 SFRSYM    DATA     BIT       ACC3
      000000E0H.4 SFRSYM    DATA     BIT       ACC4
      000000E0H.5 SFRSYM    DATA     BIT       ACC5
      000000E0H.6 SFRSYM    DATA     BIT       ACC6
      000000E0H.7 SFRSYM    DATA     BIT       ACC7
      000000F0H   SFRSYM    DATA     BIT       B0
      000000F0H.1 SFRSYM    DATA     BIT       B1
LX51 LINKER/LOCATER V4.41                                                             11/18/2015  10:20:10  PAGE 72


      000000F0H.2 SFRSYM    DATA     BIT       B2
      000000F0H.3 SFRSYM    DATA     BIT       B3
      000000F0H.4 SFRSYM    DATA     BIT       B4
      000000F0H.5 SFRSYM    DATA     BIT       B5
      000000F0H.6 SFRSYM    DATA     BIT       B6
      000000F0H.7 SFRSYM    DATA     BIT       B7
      000000B8H.7 SFRSYM    DATA     BIT       PPCA
      000000B8H.6 SFRSYM    DATA     BIT       PLVD
      000000B8H.5 SFRSYM    DATA     BIT       PADC
      000000B8H.4 SFRSYM    DATA     BIT       PS
      000000B8H.3 SFRSYM    DATA     BIT       PT1
      000000B8H.2 SFRSYM    DATA     BIT       PX1
      000000B8H.1 SFRSYM    DATA     BIT       PT0
      000000B8H   SFRSYM    DATA     BIT       PX0
      000000D8H   SFRSYM    DATA     BIT       CCF0
      000000D8H.1 SFRSYM    DATA     BIT       CCF1
      000000D8H.2 SFRSYM    DATA     BIT       CCF2
      000000D8H.6 SFRSYM    DATA     BIT       CR
      000000D8H.7 SFRSYM    DATA     BIT       CF
      01003CA5H   SYMBOL    CONST    ---       _?ix1000

      010030BEH   BLOCK     CODE     ---       LVL=0
      00000007H   SYMBOL    DATA     BYTE      channel
      020005A9H   SYMBOL    XDATA    ---       dat
      010030BEH   LINE      CODE     ---       #6
      010030C9H   LINE      CODE     ---       #7
      010030C9H   LINE      CODE     ---       #9
      010030D7H   LINE      CODE     ---       #10
      010030D7H   LINE      CODE     ---       #11
      010030D7H   LINE      CODE     ---       #12
      010030EDH   LINE      CODE     ---       #13
      010030EFH   LINE      CODE     ---       #15
      010030EFH   LINE      CODE     ---       #16
      01003105H   LINE      CODE     ---       #17
      01003107H   LINE      CODE     ---       #19
      01003107H   LINE      CODE     ---       #20
      0100311DH   LINE      CODE     ---       #21
      0100311FH   LINE      CODE     ---       #23
      0100311FH   LINE      CODE     ---       #24
      0100313AH   LINE      CODE     ---       #25
      0100313AH   LINE      CODE     ---       #26
      0100313AH   LINE      CODE     ---       #27
      ---         BLOCKEND  ---      ---       LVL=0

      0100313BH   BLOCK     CODE     ---       LVL=0
      00000007H   SYMBOL    DATA     BYTE      channel
      020005ACH   SYMBOL    XDATA    ---       dat
      0100313BH   LINE      CODE     ---       #29
      01003146H   LINE      CODE     ---       #30
      01003146H   LINE      CODE     ---       #32
      01003154H   LINE      CODE     ---       #33
      01003154H   LINE      CODE     ---       #34
      01003154H   LINE      CODE     ---       #35
      0100316AH   LINE      CODE     ---       #36
      0100316CH   LINE      CODE     ---       #38
      0100316CH   LINE      CODE     ---       #39
      01003182H   LINE      CODE     ---       #40
      01003184H   LINE      CODE     ---       #42
      01003184H   LINE      CODE     ---       #43
      0100319AH   LINE      CODE     ---       #44
      0100319CH   LINE      CODE     ---       #46
      0100319CH   LINE      CODE     ---       #47
      010031B7H   LINE      CODE     ---       #48
      010031B7H   LINE      CODE     ---       #49
      010031B7H   LINE      CODE     ---       #50
LX51 LINKER/LOCATER V4.41                                                             11/18/2015  10:20:10  PAGE 73


      ---         BLOCKEND  ---      ---       LVL=0

      010031B8H   BLOCK     CODE     ---       LVL=0
      00000007H   SYMBOL    DATA     BYTE      channel
      02000228H   SYMBOL    XDATA    ---       dat
      010031B8H   LINE      CODE     ---       #53
      010031C3H   LINE      CODE     ---       #54
      010031C3H   LINE      CODE     ---       #56
      010031D1H   LINE      CODE     ---       #57
      010031D1H   LINE      CODE     ---       #58
      010031D1H   LINE      CODE     ---       #59
      010031E7H   LINE      CODE     ---       #60
      010031E9H   LINE      CODE     ---       #62
      010031E9H   LINE      CODE     ---       #63
      010031FFH   LINE      CODE     ---       #64
      01003201H   LINE      CODE     ---       #66
      01003201H   LINE      CODE     ---       #67
      01003217H   LINE      CODE     ---       #68
      01003219H   LINE      CODE     ---       #70
      01003219H   LINE      CODE     ---       #71
      01003234H   LINE      CODE     ---       #72
      01003234H   LINE      CODE     ---       #73
      01003234H   LINE      CODE     ---       #74
      ---         BLOCKEND  ---      ---       LVL=0

      0100280BH   BLOCK     CODE     ---       LVL=0
      02000598H   SYMBOL    XDATA    BYTE      channel
      01002810H   BLOCK     CODE     NEAR LAB  LVL=1
      02000599H   SYMBOL    XDATA    ---       tmp
      ---         BLOCKEND  ---      ---       LVL=1
      0100280BH   LINE      CODE     ---       #77
      01002810H   LINE      CODE     ---       #78
      01002810H   LINE      CODE     ---       #79
      01002823H   LINE      CODE     ---       #81
      0100283AH   LINE      CODE     ---       #82
      0100283AH   LINE      CODE     ---       #83
      0100283AH   LINE      CODE     ---       #84
      01002850H   LINE      CODE     ---       #85
      01002861H   LINE      CODE     ---       #86
      01002863H   LINE      CODE     ---       #88
      01002863H   LINE      CODE     ---       #89
      01002879H   LINE      CODE     ---       #90
      0100288AH   LINE      CODE     ---       #91
      0100288CH   LINE      CODE     ---       #93
      0100288CH   LINE      CODE     ---       #94
      010028A2H   LINE      CODE     ---       #95
      010028B3H   LINE      CODE     ---       #96
      010028B5H   LINE      CODE     ---       #98
      010028B5H   LINE      CODE     ---       #99
      010028CBH   LINE      CODE     ---       #100
      010028E1H   LINE      CODE     ---       #101
      010028E1H   LINE      CODE     ---       #102
      010028E1H   LINE      CODE     ---       #103
      ---         BLOCKEND  ---      ---       LVL=0

      ---         MODULE    ---      ---       BSP
      01003AD5H   PUBLIC    CODE     ---       bsp_init
      01002C89H   PUBLIC    CODE     ---       _set_port_val
      0100396BH   PUBLIC    CODE     ---       _get_port_val
      01003A33H   PUBLIC    CODE     ---       adc_config
      01003AFDH   PUBLIC    CODE     ---       timer0_config
      01003841H   PUBLIC    CODE     ---       pwm2_config
      0100003EH   PUBLIC    CODE     ---       spi_init
      0100390EH   PUBLIC    CODE     ---       uart2_config
      010038DEH   PUBLIC    CODE     ---       uart1_config
LX51 LINKER/LOCATER V4.41                                                             11/18/2015  10:20:10  PAGE 74


      01000026H   PUBLIC    CODE     ---       watchdog_clear
      0100001EH   PUBLIC    CODE     ---       watchdog_config
      01003B66H   PUBLIC    CODE     ---       all_irq_enable
      01003B63H   PUBLIC    CODE     ---       all_irq_disable
      01003AC0H   PUBLIC    CODE     ---       gpio_config
      00000080H   SFRSYM    DATA     BYTE      P0
      00000081H   SFRSYM    DATA     BYTE      SP
      00000082H   SFRSYM    DATA     BYTE      DPL
      00000083H   SFRSYM    DATA     BYTE      DPH
      00000084H   SFRSYM    DATA     BYTE      S4CON
      00000085H   SFRSYM    DATA     BYTE      S4BUF
      00000087H   SFRSYM    DATA     BYTE      PCON
      00000088H   SFRSYM    DATA     BYTE      TCON
      00000089H   SFRSYM    DATA     BYTE      TMOD
      0000008AH   SFRSYM    DATA     BYTE      TL0
      0000008BH   SFRSYM    DATA     BYTE      TL1
      0000008CH   SFRSYM    DATA     BYTE      TH0
      0000008DH   SFRSYM    DATA     BYTE      TH1
      0000008EH   SFRSYM    DATA     BYTE      AUXR
      0000008FH   SFRSYM    DATA     BYTE      WAKE_CLKO
      0000008FH   SFRSYM    DATA     BYTE      INT_CLKO
      0000008FH   SFRSYM    DATA     BYTE      AUXR2
      0000008AH   SFRSYM    DATA     BYTE      RL_TL0
      0000008BH   SFRSYM    DATA     BYTE      RL_TL1
      0000008CH   SFRSYM    DATA     BYTE      RL_TH0
      0000008DH   SFRSYM    DATA     BYTE      RL_TH1
      00000090H   SFRSYM    DATA     BYTE      P1
      00000091H   SFRSYM    DATA     BYTE      P1M1
      00000092H   SFRSYM    DATA     BYTE      P1M0
      00000093H   SFRSYM    DATA     BYTE      P0M1
      00000094H   SFRSYM    DATA     BYTE      P0M0
      00000095H   SFRSYM    DATA     BYTE      P2M1
      00000096H   SFRSYM    DATA     BYTE      P2M0
      00000097H   SFRSYM    DATA     BYTE      CLK_DIV
      00000097H   SFRSYM    DATA     BYTE      PCON2
      00000098H   SFRSYM    DATA     BYTE      SCON
      00000099H   SFRSYM    DATA     BYTE      SBUF
      0000009AH   SFRSYM    DATA     BYTE      S2CON
      0000009BH   SFRSYM    DATA     BYTE      S2BUF
      0000009DH   SFRSYM    DATA     BYTE      P1ASF
      000000A0H   SFRSYM    DATA     BYTE      P2
      000000A1H   SFRSYM    DATA     BYTE      BUS_SPEED
      000000A2H   SFRSYM    DATA     BYTE      AUXR1
      000000A2H   SFRSYM    DATA     BYTE      P_SW1
      000000A8H   SFRSYM    DATA     BYTE      IE
      000000A9H   SFRSYM    DATA     BYTE      SADDR
      000000AAH   SFRSYM    DATA     BYTE      WKTCL
      000000ABH   SFRSYM    DATA     BYTE      WKTCH
      000000ACH   SFRSYM    DATA     BYTE      S3CON
      000000ADH   SFRSYM    DATA     BYTE      S3BUF
      000000AFH   SFRSYM    DATA     BYTE      IE2
      000000B0H   SFRSYM    DATA     BYTE      P3
      000000B1H   SFRSYM    DATA     BYTE      P3M1
      000000B2H   SFRSYM    DATA     BYTE      P3M0
      000000B3H   SFRSYM    DATA     BYTE      P4M1
      000000B4H   SFRSYM    DATA     BYTE      P4M0
      000000B5H   SFRSYM    DATA     BYTE      IP2
      000000B6H   SFRSYM    DATA     BYTE      IPH2
      000000B7H   SFRSYM    DATA     BYTE      IPH
      000000B8H   SFRSYM    DATA     BYTE      IP
      000000B9H   SFRSYM    DATA     BYTE      SADEN
      000000BAH   SFRSYM    DATA     BYTE      P_SW2
      000000BCH   SFRSYM    DATA     BYTE      ADC_CONTR
      000000BDH   SFRSYM    DATA     BYTE      ADC_RES
      000000BEH   SFRSYM    DATA     BYTE      ADC_RESL
LX51 LINKER/LOCATER V4.41                                                             11/18/2015  10:20:10  PAGE 75


      000000C0H   SFRSYM    DATA     BYTE      P4
      000000C1H   SFRSYM    DATA     BYTE      WDT_CONTR
      000000C2H   SFRSYM    DATA     BYTE      IAP_DATA
      000000C3H   SFRSYM    DATA     BYTE      IAP_ADDRH
      000000C4H   SFRSYM    DATA     BYTE      IAP_ADDRL
      000000C5H   SFRSYM    DATA     BYTE      IAP_CMD
      000000C6H   SFRSYM    DATA     BYTE      IAP_TRIG
      000000C7H   SFRSYM    DATA     BYTE      IAP_CONTR
      000000C2H   SFRSYM    DATA     BYTE      ISP_DATA
      000000C3H   SFRSYM    DATA     BYTE      ISP_ADDRH
      000000C4H   SFRSYM    DATA     BYTE      ISP_ADDRL
      000000C5H   SFRSYM    DATA     BYTE      ISP_CMD
      000000C6H   SFRSYM    DATA     BYTE      ISP_TRIG
      000000C7H   SFRSYM    DATA     BYTE      ISP_CONTR
      000000C8H   SFRSYM    DATA     BYTE      P5
      000000C9H   SFRSYM    DATA     BYTE      P5M1
      000000CAH   SFRSYM    DATA     BYTE      P5M0
      000000CBH   SFRSYM    DATA     BYTE      P6M1
      000000CCH   SFRSYM    DATA     BYTE      P6M0
      000000CDH   SFRSYM    DATA     BYTE      SPSTAT
      000000CEH   SFRSYM    DATA     BYTE      SPCTL
      000000CFH   SFRSYM    DATA     BYTE      SPDAT
      000000D0H   SFRSYM    DATA     BYTE      PSW
      000000D1H   SFRSYM    DATA     BYTE      T4T3M
      000000D2H   SFRSYM    DATA     BYTE      T4H
      000000D3H   SFRSYM    DATA     BYTE      T4L
      000000D4H   SFRSYM    DATA     BYTE      T3H
      000000D5H   SFRSYM    DATA     BYTE      T3L
      000000D6H   SFRSYM    DATA     BYTE      T2H
      000000D7H   SFRSYM    DATA     BYTE      T2L
      000000D2H   SFRSYM    DATA     BYTE      TH4
      000000D3H   SFRSYM    DATA     BYTE      TL4
      000000D4H   SFRSYM    DATA     BYTE      TH3
      000000D5H   SFRSYM    DATA     BYTE      TL3
      000000D6H   SFRSYM    DATA     BYTE      TH2
      000000D7H   SFRSYM    DATA     BYTE      TL2
      000000D2H   SFRSYM    DATA     BYTE      RL_T4H
      000000D3H   SFRSYM    DATA     BYTE      RL_T4L
      000000D4H   SFRSYM    DATA     BYTE      RL_T3H
      000000D5H   SFRSYM    DATA     BYTE      RL_T3L
      000000D6H   SFRSYM    DATA     BYTE      RL_T2H
      000000D7H   SFRSYM    DATA     BYTE      RL_T2L
      000000D8H   SFRSYM    DATA     BYTE      CCON
      000000D9H   SFRSYM    DATA     BYTE      CMOD
      000000DAH   SFRSYM    DATA     BYTE      CCAPM0
      000000DBH   SFRSYM    DATA     BYTE      CCAPM1
      000000DCH   SFRSYM    DATA     BYTE      CCAPM2
      000000E0H   SFRSYM    DATA     BYTE      ACC
      000000E1H   SFRSYM    DATA     BYTE      P7M1
      000000E2H   SFRSYM    DATA     BYTE      P7M0
      000000E8H   SFRSYM    DATA     BYTE      P6
      000000E9H   SFRSYM    DATA     BYTE      CL
      000000EAH   SFRSYM    DATA     BYTE      CCAP0L
      000000EBH   SFRSYM    DATA     BYTE      CCAP1L
      000000ECH   SFRSYM    DATA     BYTE      CCAP2L
      000000F0H   SFRSYM    DATA     BYTE      B
      000000F2H   SFRSYM    DATA     BYTE      PCA_PWM0
      000000F3H   SFRSYM    DATA     BYTE      PCA_PWM1
      000000F4H   SFRSYM    DATA     BYTE      PCA_PWM2
      000000F8H   SFRSYM    DATA     BYTE      P7
      000000F9H   SFRSYM    DATA     BYTE      CH
      000000FAH   SFRSYM    DATA     BYTE      CCAP0H
      000000FBH   SFRSYM    DATA     BYTE      CCAP1H
      000000FCH   SFRSYM    DATA     BYTE      CCAP2H
      000000D0H.7 SFRSYM    DATA     BIT       CY
LX51 LINKER/LOCATER V4.41                                                             11/18/2015  10:20:10  PAGE 76


      000000D0H.6 SFRSYM    DATA     BIT       AC
      000000D0H.5 SFRSYM    DATA     BIT       F0
      000000D0H.4 SFRSYM    DATA     BIT       RS1
      000000D0H.3 SFRSYM    DATA     BIT       RS0
      000000D0H.2 SFRSYM    DATA     BIT       OV
      000000D0H.1 SFRSYM    DATA     BIT       F1
      000000D0H   SFRSYM    DATA     BIT       P
      00000088H.7 SFRSYM    DATA     BIT       TF1
      00000088H.6 SFRSYM    DATA     BIT       TR1
      00000088H.5 SFRSYM    DATA     BIT       TF0
      00000088H.4 SFRSYM    DATA     BIT       TR0
      00000088H.3 SFRSYM    DATA     BIT       IE1
      00000088H.2 SFRSYM    DATA     BIT       IT1
      00000088H.1 SFRSYM    DATA     BIT       IE0
      00000088H   SFRSYM    DATA     BIT       IT0
      00000080H   SFRSYM    DATA     BIT       P00
      00000080H.1 SFRSYM    DATA     BIT       P01
      00000080H.2 SFRSYM    DATA     BIT       P02
      00000080H.3 SFRSYM    DATA     BIT       P03
      00000080H.4 SFRSYM    DATA     BIT       P04
      00000080H.5 SFRSYM    DATA     BIT       P05
      00000080H.6 SFRSYM    DATA     BIT       P06
      00000080H.7 SFRSYM    DATA     BIT       P07
      00000090H   SFRSYM    DATA     BIT       P10
      00000090H.1 SFRSYM    DATA     BIT       P11
      00000090H.2 SFRSYM    DATA     BIT       P12
      00000090H.3 SFRSYM    DATA     BIT       P13
      00000090H.4 SFRSYM    DATA     BIT       P14
      00000090H.5 SFRSYM    DATA     BIT       P15
      00000090H.6 SFRSYM    DATA     BIT       P16
      00000090H.7 SFRSYM    DATA     BIT       P17
      00000090H   SFRSYM    DATA     BIT       RXD2
      00000090H.1 SFRSYM    DATA     BIT       TXD2
      00000090H   SFRSYM    DATA     BIT       CCP1
      00000090H.1 SFRSYM    DATA     BIT       CCP0
      00000090H.2 SFRSYM    DATA     BIT       SPI_SS
      00000090H.3 SFRSYM    DATA     BIT       SPI_MOSI
      00000090H.4 SFRSYM    DATA     BIT       SPI_MISO
      00000090H.5 SFRSYM    DATA     BIT       SPI_SCLK
      000000A0H.4 SFRSYM    DATA     BIT       SPI_SS_2
      000000A0H.3 SFRSYM    DATA     BIT       SPI_MOSI_2
      000000A0H.2 SFRSYM    DATA     BIT       SPI_MISO_2
      000000A0H.1 SFRSYM    DATA     BIT       SPI_SCLK_2
      000000C8H.4 SFRSYM    DATA     BIT       SPI_SS_3
      000000C0H   SFRSYM    DATA     BIT       SPI_MOSI_3
      000000C0H.1 SFRSYM    DATA     BIT       SPI_MISO_3
      000000C0H.3 SFRSYM    DATA     BIT       SPI_SCLK_3
      000000A0H   SFRSYM    DATA     BIT       P20
      000000A0H.1 SFRSYM    DATA     BIT       P21
      000000A0H.2 SFRSYM    DATA     BIT       P22
      000000A0H.3 SFRSYM    DATA     BIT       P23
      000000A0H.4 SFRSYM    DATA     BIT       P24
      000000A0H.5 SFRSYM    DATA     BIT       P25
      000000A0H.6 SFRSYM    DATA     BIT       P26
      000000A0H.7 SFRSYM    DATA     BIT       P27
      000000B0H   SFRSYM    DATA     BIT       P30
      000000B0H.1 SFRSYM    DATA     BIT       P31
      000000B0H.2 SFRSYM    DATA     BIT       P32
      000000B0H.3 SFRSYM    DATA     BIT       P33
      000000B0H.4 SFRSYM    DATA     BIT       P34
      000000B0H.5 SFRSYM    DATA     BIT       P35
      000000B0H.6 SFRSYM    DATA     BIT       P36
      000000B0H.7 SFRSYM    DATA     BIT       P37
      000000B0H   SFRSYM    DATA     BIT       RXD
      000000B0H.1 SFRSYM    DATA     BIT       TXD
LX51 LINKER/LOCATER V4.41                                                             11/18/2015  10:20:10  PAGE 77


      000000B0H.2 SFRSYM    DATA     BIT       INT0
      000000B0H.3 SFRSYM    DATA     BIT       INT1
      000000B0H.4 SFRSYM    DATA     BIT       T0
      000000B0H.5 SFRSYM    DATA     BIT       T1
      000000B0H.6 SFRSYM    DATA     BIT       WR
      000000B0H.7 SFRSYM    DATA     BIT       RD
      000000B0H.7 SFRSYM    DATA     BIT       CCP2
      000000B0H.5 SFRSYM    DATA     BIT       CLKOUT0
      000000B0H.4 SFRSYM    DATA     BIT       CLKOUT1
      000000C0H   SFRSYM    DATA     BIT       P40
      000000C0H.1 SFRSYM    DATA     BIT       P41
      000000C0H.2 SFRSYM    DATA     BIT       P42
      000000C0H.3 SFRSYM    DATA     BIT       P43
      000000C0H.4 SFRSYM    DATA     BIT       P44
      000000C0H.5 SFRSYM    DATA     BIT       P45
      000000C0H.6 SFRSYM    DATA     BIT       P46
      000000C0H.7 SFRSYM    DATA     BIT       P47
      000000C8H   SFRSYM    DATA     BIT       P50
      000000C8H.1 SFRSYM    DATA     BIT       P51
      000000C8H.2 SFRSYM    DATA     BIT       P52
      000000C8H.3 SFRSYM    DATA     BIT       P53
      000000C8H.4 SFRSYM    DATA     BIT       P54
      000000C8H.5 SFRSYM    DATA     BIT       P55
      000000C8H.6 SFRSYM    DATA     BIT       P56
      000000C8H.7 SFRSYM    DATA     BIT       P57
      00000098H.7 SFRSYM    DATA     BIT       SM0
      00000098H.6 SFRSYM    DATA     BIT       SM1
      00000098H.5 SFRSYM    DATA     BIT       SM2
      00000098H.4 SFRSYM    DATA     BIT       REN
      00000098H.3 SFRSYM    DATA     BIT       TB8
      00000098H.2 SFRSYM    DATA     BIT       RB8
      00000098H.1 SFRSYM    DATA     BIT       TI
      00000098H   SFRSYM    DATA     BIT       RI
      000000A8H.7 SFRSYM    DATA     BIT       EA
      000000A8H.6 SFRSYM    DATA     BIT       ELVD
      000000A8H.5 SFRSYM    DATA     BIT       EADC
      000000A8H.4 SFRSYM    DATA     BIT       ES
      000000A8H.3 SFRSYM    DATA     BIT       ET1
      000000A8H.2 SFRSYM    DATA     BIT       EX1
      000000A8H.1 SFRSYM    DATA     BIT       ET0
      000000A8H   SFRSYM    DATA     BIT       EX0
      000000E0H   SFRSYM    DATA     BIT       ACC0
      000000E0H.1 SFRSYM    DATA     BIT       ACC1
      000000E0H.2 SFRSYM    DATA     BIT       ACC2
      000000E0H.3 SFRSYM    DATA     BIT       ACC3
      000000E0H.4 SFRSYM    DATA     BIT       ACC4
      000000E0H.5 SFRSYM    DATA     BIT       ACC5
      000000E0H.6 SFRSYM    DATA     BIT       ACC6
      000000E0H.7 SFRSYM    DATA     BIT       ACC7
      000000F0H   SFRSYM    DATA     BIT       B0
      000000F0H.1 SFRSYM    DATA     BIT       B1
      000000F0H.2 SFRSYM    DATA     BIT       B2
      000000F0H.3 SFRSYM    DATA     BIT       B3
      000000F0H.4 SFRSYM    DATA     BIT       B4
      000000F0H.5 SFRSYM    DATA     BIT       B5
      000000F0H.6 SFRSYM    DATA     BIT       B6
      000000F0H.7 SFRSYM    DATA     BIT       B7
      000000B8H.7 SFRSYM    DATA     BIT       PPCA
      000000B8H.6 SFRSYM    DATA     BIT       PLVD
      000000B8H.5 SFRSYM    DATA     BIT       PADC
      000000B8H.4 SFRSYM    DATA     BIT       PS
      000000B8H.3 SFRSYM    DATA     BIT       PT1
      000000B8H.2 SFRSYM    DATA     BIT       PX1
      000000B8H.1 SFRSYM    DATA     BIT       PT0
      000000B8H   SFRSYM    DATA     BIT       PX0
LX51 LINKER/LOCATER V4.41                                                             11/18/2015  10:20:10  PAGE 78


      000000D8H   SFRSYM    DATA     BIT       CCF0
      000000D8H.1 SFRSYM    DATA     BIT       CCF1
      000000D8H.2 SFRSYM    DATA     BIT       CCF2
      000000D8H.6 SFRSYM    DATA     BIT       CR
      000000D8H.7 SFRSYM    DATA     BIT       CF

      01003AC0H   BLOCK     CODE     ---       LVL=0
      01003AC0H   BLOCK     CODE     NEAR LAB  LVL=1
      02000223H   SYMBOL    XDATA    ---       gpio_init_structure
      ---         BLOCKEND  ---      ---       LVL=1
      01003AC0H   LINE      CODE     ---       #11
      01003AC0H   LINE      CODE     ---       #12
      01003AC0H   LINE      CODE     ---       #15
      01003AC6H   LINE      CODE     ---       #16
      01003ACAH   LINE      CODE     ---       #17
      ---         BLOCKEND  ---      ---       LVL=0

      01003B63H   BLOCK     CODE     ---       LVL=0
      01003B63H   LINE      CODE     ---       #20
      01003B63H   LINE      CODE     ---       #21
      01003B63H   LINE      CODE     ---       #22
      01003B65H   LINE      CODE     ---       #23
      ---         BLOCKEND  ---      ---       LVL=0

      01003B66H   BLOCK     CODE     ---       LVL=0
      01003B66H   LINE      CODE     ---       #25
      01003B66H   LINE      CODE     ---       #26
      01003B66H   LINE      CODE     ---       #27
      01003B68H   LINE      CODE     ---       #28
      ---         BLOCKEND  ---      ---       LVL=0

      0100001EH   BLOCK     CODE     ---       LVL=0
      0100001EH   LINE      CODE     ---       #30
      0100001EH   LINE      CODE     ---       #31
      0100001EH   LINE      CODE     ---       #32
      01000021H   LINE      CODE     ---       #33
      ---         BLOCKEND  ---      ---       LVL=0

      01000026H   BLOCK     CODE     ---       LVL=0
      01000026H   LINE      CODE     ---       #35
      01000026H   LINE      CODE     ---       #36
      01000026H   LINE      CODE     ---       #37
      01000029H   LINE      CODE     ---       #38
      ---         BLOCKEND  ---      ---       LVL=0

      010038DEH   BLOCK     CODE     ---       LVL=0
      010038DEH   BLOCK     CODE     NEAR LAB  LVL=1
      02000223H   SYMBOL    XDATA    ---       uart_init_structure
      ---         BLOCKEND  ---      ---       LVL=1
      010038DEH   LINE      CODE     ---       #40
      010038DEH   LINE      CODE     ---       #41
      010038DEH   LINE      CODE     ---       #44
      010038E4H   LINE      CODE     ---       #45
      010038E8H   LINE      CODE     ---       #46
      010038F0H   LINE      CODE     ---       #47
      010038F6H   LINE      CODE     ---       #48
      010038F9H   LINE      CODE     ---       #49
      010038FCH   LINE      CODE     ---       #50
      010038FEH   LINE      CODE     ---       #51
      01003901H   LINE      CODE     ---       #52
      01003903H   LINE      CODE     ---       #53
      ---         BLOCKEND  ---      ---       LVL=0

      0100390EH   BLOCK     CODE     ---       LVL=0
      0100390EH   BLOCK     CODE     NEAR LAB  LVL=1
LX51 LINKER/LOCATER V4.41                                                             11/18/2015  10:20:10  PAGE 79


      02000223H   SYMBOL    XDATA    ---       uart_init_structure
      ---         BLOCKEND  ---      ---       LVL=1
      0100390EH   LINE      CODE     ---       #57
      0100390EH   LINE      CODE     ---       #58
      0100390EH   LINE      CODE     ---       #61
      01003914H   LINE      CODE     ---       #62
      01003918H   LINE      CODE     ---       #63
      01003920H   LINE      CODE     ---       #64
      01003926H   LINE      CODE     ---       #65
      01003929H   LINE      CODE     ---       #66
      0100392CH   LINE      CODE     ---       #67
      0100392FH   LINE      CODE     ---       #68
      01003931H   LINE      CODE     ---       #69
      01003933H   LINE      CODE     ---       #70
      ---         BLOCKEND  ---      ---       LVL=0

      0100003EH   BLOCK     CODE     ---       LVL=0
      0100003EH   LINE      CODE     ---       #79
      0100003EH   LINE      CODE     ---       #80
      0100003EH   LINE      CODE     ---       #81
      01000041H   LINE      CODE     ---       #82
      ---         BLOCKEND  ---      ---       LVL=0

      01003841H   BLOCK     CODE     ---       LVL=0
      01003841H   BLOCK     CODE     NEAR LAB  LVL=1
      02000223H   SYMBOL    XDATA    ---       pca_init_structure
      ---         BLOCKEND  ---      ---       LVL=1
      01003841H   LINE      CODE     ---       #86
      01003841H   LINE      CODE     ---       #87
      01003841H   LINE      CODE     ---       #90
      01003843H   LINE      CODE     ---       #91
      01003845H   LINE      CODE     ---       #92
      01003847H   LINE      CODE     ---       #93
      01003849H   LINE      CODE     ---       #95
      0100384FH   LINE      CODE     ---       #96
      01003853H   LINE      CODE     ---       #97
      01003858H   LINE      CODE     ---       #98
      0100385EH   LINE      CODE     ---       #99
      01003861H   LINE      CODE     ---       #100
      01003863H   LINE      CODE     ---       #101
      0100386CH   LINE      CODE     ---       #102
      ---         BLOCKEND  ---      ---       LVL=0

      01003AFDH   BLOCK     CODE     ---       LVL=0
      01003AFDH   LINE      CODE     ---       #122
      01003AFDH   LINE      CODE     ---       #123
      01003AFDH   LINE      CODE     ---       #124
      01003B00H   LINE      CODE     ---       #125
      01003B03H   LINE      CODE     ---       #126
      01003B06H   LINE      CODE     ---       #127
      01003B09H   LINE      CODE     ---       #128
      01003B0BH   LINE      CODE     ---       #129
      01003B0DH   LINE      CODE     ---       #130
      01003B0FH   LINE      CODE     ---       #131
      ---         BLOCKEND  ---      ---       LVL=0

      01003A33H   BLOCK     CODE     ---       LVL=0
      01003A33H   BLOCK     CODE     NEAR LAB  LVL=1
      02000223H   SYMBOL    XDATA    ---       adc_init_structure
      ---         BLOCKEND  ---      ---       LVL=1
      01003A33H   LINE      CODE     ---       #134
      01003A33H   LINE      CODE     ---       #135
      01003A33H   LINE      CODE     ---       #138
      01003A39H   LINE      CODE     ---       #139
      01003A3DH   LINE      CODE     ---       #140
LX51 LINKER/LOCATER V4.41                                                             11/18/2015  10:20:10  PAGE 80


      01003A41H   LINE      CODE     ---       #141
      01003A44H   LINE      CODE     ---       #142
      01003A46H   LINE      CODE     ---       #143
      01003A48H   LINE      CODE     ---       #144
      01003A51H   LINE      CODE     ---       #145
      ---         BLOCKEND  ---      ---       LVL=0

      0100396BH   BLOCK     CODE     ---       LVL=0
      00000007H   SYMBOL    DATA     BYTE      port
      0100396BH   BLOCK     CODE     NEAR LAB  LVL=1
      00000006H   SYMBOL    DATA     BYTE      val
      ---         BLOCKEND  ---      ---       LVL=1
      0100396BH   LINE      CODE     ---       #149
      0100396BH   LINE      CODE     ---       #150
      0100396BH   LINE      CODE     ---       #151
      0100396DH   LINE      CODE     ---       #153
      0100397EH   LINE      CODE     ---       #154
      0100397EH   LINE      CODE     ---       #155
      0100397EH   LINE      CODE     ---       #156
      01003980H   LINE      CODE     ---       #157
      01003982H   LINE      CODE     ---       #159
      01003982H   LINE      CODE     ---       #160
      01003984H   LINE      CODE     ---       #161
      01003986H   LINE      CODE     ---       #163
      01003986H   LINE      CODE     ---       #164
      01003988H   LINE      CODE     ---       #165
      0100398AH   LINE      CODE     ---       #167
      0100398AH   LINE      CODE     ---       #168
      0100398CH   LINE      CODE     ---       #169
      0100398EH   LINE      CODE     ---       #171
      0100398EH   LINE      CODE     ---       #172
      01003993H   LINE      CODE     ---       #173
      01003993H   LINE      CODE     ---       #174
      01003993H   LINE      CODE     ---       #176
      01003995H   LINE      CODE     ---       #177
      ---         BLOCKEND  ---      ---       LVL=0

      01002C89H   BLOCK     CODE     ---       LVL=0
      00000007H   SYMBOL    DATA     BYTE      port
      00000005H   SYMBOL    DATA     BYTE      val
      01002C89H   LINE      CODE     ---       #180
      01002C89H   LINE      CODE     ---       #181
      01002C89H   LINE      CODE     ---       #182
      01002CBDH   LINE      CODE     ---       #183
      01002CBDH   LINE      CODE     ---       #184
      01002CBDH   LINE      CODE     ---       #185
      01002CC1H   LINE      CODE     ---       #186
      01002CC1H   LINE      CODE     ---       #187
      01002CC3H   LINE      CODE     ---       #188
      01002CC4H   LINE      CODE     ---       #190
      01002CC4H   LINE      CODE     ---       #191
      01002CC6H   LINE      CODE     ---       #192
      01002CC6H   LINE      CODE     ---       #193
      01002CC7H   LINE      CODE     ---       #195
      01002CC7H   LINE      CODE     ---       #196
      01002CCBH   LINE      CODE     ---       #197
      01002CCBH   LINE      CODE     ---       #198
      01002CCDH   LINE      CODE     ---       #199
      01002CCEH   LINE      CODE     ---       #201
      01002CCEH   LINE      CODE     ---       #202
      01002CD0H   LINE      CODE     ---       #203
      01002CD0H   LINE      CODE     ---       #204
      01002CD1H   LINE      CODE     ---       #206
      01002CD1H   LINE      CODE     ---       #207
      01002CD5H   LINE      CODE     ---       #208
LX51 LINKER/LOCATER V4.41                                                             11/18/2015  10:20:10  PAGE 81


      01002CD5H   LINE      CODE     ---       #209
      01002CD7H   LINE      CODE     ---       #210
      01002CD8H   LINE      CODE     ---       #212
      01002CD8H   LINE      CODE     ---       #213
      01002CDAH   LINE      CODE     ---       #214
      01002CDAH   LINE      CODE     ---       #215
      01002CDBH   LINE      CODE     ---       #217
      01002CDBH   LINE      CODE     ---       #218
      01002CDFH   LINE      CODE     ---       #219
      01002CDFH   LINE      CODE     ---       #220
      01002CE1H   LINE      CODE     ---       #221
      01002CE2H   LINE      CODE     ---       #223
      01002CE2H   LINE      CODE     ---       #224
      01002CE4H   LINE      CODE     ---       #225
      01002CE4H   LINE      CODE     ---       #226
      01002CE5H   LINE      CODE     ---       #228
      01002CE5H   LINE      CODE     ---       #229
      01002CE9H   LINE      CODE     ---       #230
      01002CE9H   LINE      CODE     ---       #231
      01002CEBH   LINE      CODE     ---       #232
      01002CECH   LINE      CODE     ---       #234
      01002CECH   LINE      CODE     ---       #235
      01002CEEH   LINE      CODE     ---       #236
      01002CEEH   LINE      CODE     ---       #237
      01002CEFH   LINE      CODE     ---       #239
      01002CEFH   LINE      CODE     ---       #240
      01002CF3H   LINE      CODE     ---       #241
      01002CF3H   LINE      CODE     ---       #242
      01002CF5H   LINE      CODE     ---       #243
      01002CF6H   LINE      CODE     ---       #245
      01002CF6H   LINE      CODE     ---       #246
      01002CF8H   LINE      CODE     ---       #247
      01002CF8H   LINE      CODE     ---       #248
      01002CF9H   LINE      CODE     ---       #250
      01002CF9H   LINE      CODE     ---       #251
      01002CFDH   LINE      CODE     ---       #252
      01002CFDH   LINE      CODE     ---       #253
      01002CFFH   LINE      CODE     ---       #254
      01002D00H   LINE      CODE     ---       #256
      01002D00H   LINE      CODE     ---       #257
      01002D02H   LINE      CODE     ---       #258
      01002D02H   LINE      CODE     ---       #259
      01002D03H   LINE      CODE     ---       #261
      01002D03H   LINE      CODE     ---       #262
      01002D07H   LINE      CODE     ---       #263
      01002D07H   LINE      CODE     ---       #264
      01002D09H   LINE      CODE     ---       #265
      01002D0AH   LINE      CODE     ---       #267
      01002D0AH   LINE      CODE     ---       #268
      01002D0CH   LINE      CODE     ---       #269
      01002D0CH   LINE      CODE     ---       #270
      01002D0DH   LINE      CODE     ---       #272
      01002D0DH   LINE      CODE     ---       #273
      01002D11H   LINE      CODE     ---       #274
      01002D11H   LINE      CODE     ---       #275
      01002D13H   LINE      CODE     ---       #276
      01002D14H   LINE      CODE     ---       #278
      01002D14H   LINE      CODE     ---       #279
      01002D16H   LINE      CODE     ---       #280
      01002D16H   LINE      CODE     ---       #281
      01002D17H   LINE      CODE     ---       #283
      01002D17H   LINE      CODE     ---       #284
      01002D1BH   LINE      CODE     ---       #285
      01002D1BH   LINE      CODE     ---       #286
      01002D1DH   LINE      CODE     ---       #287
LX51 LINKER/LOCATER V4.41                                                             11/18/2015  10:20:10  PAGE 82


      01002D1EH   LINE      CODE     ---       #289
      01002D1EH   LINE      CODE     ---       #290
      01002D20H   LINE      CODE     ---       #291
      01002D20H   LINE      CODE     ---       #292
      01002D21H   LINE      CODE     ---       #294
      01002D21H   LINE      CODE     ---       #295
      01002D25H   LINE      CODE     ---       #296
      01002D25H   LINE      CODE     ---       #297
      01002D27H   LINE      CODE     ---       #298
      01002D28H   LINE      CODE     ---       #300
      01002D28H   LINE      CODE     ---       #301
      01002D2AH   LINE      CODE     ---       #302
      01002D2AH   LINE      CODE     ---       #303
      01002D2BH   LINE      CODE     ---       #305
      01002D2BH   LINE      CODE     ---       #306
      01002D2FH   LINE      CODE     ---       #307
      01002D2FH   LINE      CODE     ---       #308
      01002D31H   LINE      CODE     ---       #309
      01002D32H   LINE      CODE     ---       #311
      01002D32H   LINE      CODE     ---       #312
      01002D34H   LINE      CODE     ---       #313
      01002D34H   LINE      CODE     ---       #314
      01002D34H   LINE      CODE     ---       #315
      01002D34H   LINE      CODE     ---       #316
      ---         BLOCKEND  ---      ---       LVL=0

      01003AD5H   BLOCK     CODE     ---       LVL=0
      01003AD5H   LINE      CODE     ---       #321
      01003AD5H   LINE      CODE     ---       #322
      01003AD5H   LINE      CODE     ---       #323
      01003AD8H   LINE      CODE     ---       #324
      01003ADBH   LINE      CODE     ---       #325
      01003ADEH   LINE      CODE     ---       #326
      01003AE1H   LINE      CODE     ---       #328
      01003AE4H   LINE      CODE     ---       #329
      01003AE7H   LINE      CODE     ---       #330
      ---         BLOCKEND  ---      ---       LVL=0

      ---         MODULE    ---      ---       ADC
      01003B5FH   PUBLIC    CODE     ---       ADC_int
      01003537H   PUBLIC    CODE     ---       _Get_ADC10bitResult
      0100000EH   PUBLIC    CODE     ---       _ADC_PowerControl
      01003595H   PUBLIC    CODE     ---       _ADC_Inilize
      00000080H   SFRSYM    DATA     BYTE      P0
      00000081H   SFRSYM    DATA     BYTE      SP
      00000082H   SFRSYM    DATA     BYTE      DPL
      00000083H   SFRSYM    DATA     BYTE      DPH
      00000084H   SFRSYM    DATA     BYTE      S4CON
      00000085H   SFRSYM    DATA     BYTE      S4BUF
      00000087H   SFRSYM    DATA     BYTE      PCON
      00000088H   SFRSYM    DATA     BYTE      TCON
      00000089H   SFRSYM    DATA     BYTE      TMOD
      0000008AH   SFRSYM    DATA     BYTE      TL0
      0000008BH   SFRSYM    DATA     BYTE      TL1
      0000008CH   SFRSYM    DATA     BYTE      TH0
      0000008DH   SFRSYM    DATA     BYTE      TH1
      0000008EH   SFRSYM    DATA     BYTE      AUXR
      0000008FH   SFRSYM    DATA     BYTE      WAKE_CLKO
      0000008FH   SFRSYM    DATA     BYTE      INT_CLKO
      0000008FH   SFRSYM    DATA     BYTE      AUXR2
      0000008AH   SFRSYM    DATA     BYTE      RL_TL0
      0000008BH   SFRSYM    DATA     BYTE      RL_TL1
      0000008CH   SFRSYM    DATA     BYTE      RL_TH0
      0000008DH   SFRSYM    DATA     BYTE      RL_TH1
      00000090H   SFRSYM    DATA     BYTE      P1
LX51 LINKER/LOCATER V4.41                                                             11/18/2015  10:20:10  PAGE 83


      00000091H   SFRSYM    DATA     BYTE      P1M1
      00000092H   SFRSYM    DATA     BYTE      P1M0
      00000093H   SFRSYM    DATA     BYTE      P0M1
      00000094H   SFRSYM    DATA     BYTE      P0M0
      00000095H   SFRSYM    DATA     BYTE      P2M1
      00000096H   SFRSYM    DATA     BYTE      P2M0
      00000097H   SFRSYM    DATA     BYTE      CLK_DIV
      00000097H   SFRSYM    DATA     BYTE      PCON2
      00000098H   SFRSYM    DATA     BYTE      SCON
      00000099H   SFRSYM    DATA     BYTE      SBUF
      0000009AH   SFRSYM    DATA     BYTE      S2CON
      0000009BH   SFRSYM    DATA     BYTE      S2BUF
      0000009DH   SFRSYM    DATA     BYTE      P1ASF
      000000A0H   SFRSYM    DATA     BYTE      P2
      000000A1H   SFRSYM    DATA     BYTE      BUS_SPEED
      000000A2H   SFRSYM    DATA     BYTE      AUXR1
      000000A2H   SFRSYM    DATA     BYTE      P_SW1
      000000A8H   SFRSYM    DATA     BYTE      IE
      000000A9H   SFRSYM    DATA     BYTE      SADDR
      000000AAH   SFRSYM    DATA     BYTE      WKTCL
      000000ABH   SFRSYM    DATA     BYTE      WKTCH
      000000ACH   SFRSYM    DATA     BYTE      S3CON
      000000ADH   SFRSYM    DATA     BYTE      S3BUF
      000000AFH   SFRSYM    DATA     BYTE      IE2
      000000B0H   SFRSYM    DATA     BYTE      P3
      000000B1H   SFRSYM    DATA     BYTE      P3M1
      000000B2H   SFRSYM    DATA     BYTE      P3M0
      000000B3H   SFRSYM    DATA     BYTE      P4M1
      000000B4H   SFRSYM    DATA     BYTE      P4M0
      000000B5H   SFRSYM    DATA     BYTE      IP2
      000000B6H   SFRSYM    DATA     BYTE      IPH2
      000000B7H   SFRSYM    DATA     BYTE      IPH
      000000B8H   SFRSYM    DATA     BYTE      IP
      000000B9H   SFRSYM    DATA     BYTE      SADEN
      000000BAH   SFRSYM    DATA     BYTE      P_SW2
      000000BCH   SFRSYM    DATA     BYTE      ADC_CONTR
      000000BDH   SFRSYM    DATA     BYTE      ADC_RES
      000000BEH   SFRSYM    DATA     BYTE      ADC_RESL
      000000C0H   SFRSYM    DATA     BYTE      P4
      000000C1H   SFRSYM    DATA     BYTE      WDT_CONTR
      000000C2H   SFRSYM    DATA     BYTE      IAP_DATA
      000000C3H   SFRSYM    DATA     BYTE      IAP_ADDRH
      000000C4H   SFRSYM    DATA     BYTE      IAP_ADDRL
      000000C5H   SFRSYM    DATA     BYTE      IAP_CMD
      000000C6H   SFRSYM    DATA     BYTE      IAP_TRIG
      000000C7H   SFRSYM    DATA     BYTE      IAP_CONTR
      000000C2H   SFRSYM    DATA     BYTE      ISP_DATA
      000000C3H   SFRSYM    DATA     BYTE      ISP_ADDRH
      000000C4H   SFRSYM    DATA     BYTE      ISP_ADDRL
      000000C5H   SFRSYM    DATA     BYTE      ISP_CMD
      000000C6H   SFRSYM    DATA     BYTE      ISP_TRIG
      000000C7H   SFRSYM    DATA     BYTE      ISP_CONTR
      000000C8H   SFRSYM    DATA     BYTE      P5
      000000C9H   SFRSYM    DATA     BYTE      P5M1
      000000CAH   SFRSYM    DATA     BYTE      P5M0
      000000CBH   SFRSYM    DATA     BYTE      P6M1
      000000CCH   SFRSYM    DATA     BYTE      P6M0
      000000CDH   SFRSYM    DATA     BYTE      SPSTAT
      000000CEH   SFRSYM    DATA     BYTE      SPCTL
      000000CFH   SFRSYM    DATA     BYTE      SPDAT
      000000D0H   SFRSYM    DATA     BYTE      PSW
      000000D1H   SFRSYM    DATA     BYTE      T4T3M
      000000D2H   SFRSYM    DATA     BYTE      T4H
      000000D3H   SFRSYM    DATA     BYTE      T4L
      000000D4H   SFRSYM    DATA     BYTE      T3H
LX51 LINKER/LOCATER V4.41                                                             11/18/2015  10:20:10  PAGE 84


      000000D5H   SFRSYM    DATA     BYTE      T3L
      000000D6H   SFRSYM    DATA     BYTE      T2H
      000000D7H   SFRSYM    DATA     BYTE      T2L
      000000D2H   SFRSYM    DATA     BYTE      TH4
      000000D3H   SFRSYM    DATA     BYTE      TL4
      000000D4H   SFRSYM    DATA     BYTE      TH3
      000000D5H   SFRSYM    DATA     BYTE      TL3
      000000D6H   SFRSYM    DATA     BYTE      TH2
      000000D7H   SFRSYM    DATA     BYTE      TL2
      000000D2H   SFRSYM    DATA     BYTE      RL_T4H
      000000D3H   SFRSYM    DATA     BYTE      RL_T4L
      000000D4H   SFRSYM    DATA     BYTE      RL_T3H
      000000D5H   SFRSYM    DATA     BYTE      RL_T3L
      000000D6H   SFRSYM    DATA     BYTE      RL_T2H
      000000D7H   SFRSYM    DATA     BYTE      RL_T2L
      000000D8H   SFRSYM    DATA     BYTE      CCON
      000000D9H   SFRSYM    DATA     BYTE      CMOD
      000000DAH   SFRSYM    DATA     BYTE      CCAPM0
      000000DBH   SFRSYM    DATA     BYTE      CCAPM1
      000000DCH   SFRSYM    DATA     BYTE      CCAPM2
      000000E0H   SFRSYM    DATA     BYTE      ACC
      000000E1H   SFRSYM    DATA     BYTE      P7M1
      000000E2H   SFRSYM    DATA     BYTE      P7M0
      000000E8H   SFRSYM    DATA     BYTE      P6
      000000E9H   SFRSYM    DATA     BYTE      CL
      000000EAH   SFRSYM    DATA     BYTE      CCAP0L
      000000EBH   SFRSYM    DATA     BYTE      CCAP1L
      000000ECH   SFRSYM    DATA     BYTE      CCAP2L
      000000F0H   SFRSYM    DATA     BYTE      B
      000000F2H   SFRSYM    DATA     BYTE      PCA_PWM0
      000000F3H   SFRSYM    DATA     BYTE      PCA_PWM1
      000000F4H   SFRSYM    DATA     BYTE      PCA_PWM2
      000000F8H   SFRSYM    DATA     BYTE      P7
      000000F9H   SFRSYM    DATA     BYTE      CH
      000000FAH   SFRSYM    DATA     BYTE      CCAP0H
      000000FBH   SFRSYM    DATA     BYTE      CCAP1H
      000000FCH   SFRSYM    DATA     BYTE      CCAP2H
      000000D0H.7 SFRSYM    DATA     BIT       CY
      000000D0H.6 SFRSYM    DATA     BIT       AC
      000000D0H.5 SFRSYM    DATA     BIT       F0
      000000D0H.4 SFRSYM    DATA     BIT       RS1
      000000D0H.3 SFRSYM    DATA     BIT       RS0
      000000D0H.2 SFRSYM    DATA     BIT       OV
      000000D0H.1 SFRSYM    DATA     BIT       F1
      000000D0H   SFRSYM    DATA     BIT       P
      00000088H.7 SFRSYM    DATA     BIT       TF1
      00000088H.6 SFRSYM    DATA     BIT       TR1
      00000088H.5 SFRSYM    DATA     BIT       TF0
      00000088H.4 SFRSYM    DATA     BIT       TR0
      00000088H.3 SFRSYM    DATA     BIT       IE1
      00000088H.2 SFRSYM    DATA     BIT       IT1
      00000088H.1 SFRSYM    DATA     BIT       IE0
      00000088H   SFRSYM    DATA     BIT       IT0
      00000080H   SFRSYM    DATA     BIT       P00
      00000080H.1 SFRSYM    DATA     BIT       P01
      00000080H.2 SFRSYM    DATA     BIT       P02
      00000080H.3 SFRSYM    DATA     BIT       P03
      00000080H.4 SFRSYM    DATA     BIT       P04
      00000080H.5 SFRSYM    DATA     BIT       P05
      00000080H.6 SFRSYM    DATA     BIT       P06
      00000080H.7 SFRSYM    DATA     BIT       P07
      00000090H   SFRSYM    DATA     BIT       P10
      00000090H.1 SFRSYM    DATA     BIT       P11
      00000090H.2 SFRSYM    DATA     BIT       P12
      00000090H.3 SFRSYM    DATA     BIT       P13
LX51 LINKER/LOCATER V4.41                                                             11/18/2015  10:20:10  PAGE 85


      00000090H.4 SFRSYM    DATA     BIT       P14
      00000090H.5 SFRSYM    DATA     BIT       P15
      00000090H.6 SFRSYM    DATA     BIT       P16
      00000090H.7 SFRSYM    DATA     BIT       P17
      00000090H   SFRSYM    DATA     BIT       RXD2
      00000090H.1 SFRSYM    DATA     BIT       TXD2
      00000090H   SFRSYM    DATA     BIT       CCP1
      00000090H.1 SFRSYM    DATA     BIT       CCP0
      00000090H.2 SFRSYM    DATA     BIT       SPI_SS
      00000090H.3 SFRSYM    DATA     BIT       SPI_MOSI
      00000090H.4 SFRSYM    DATA     BIT       SPI_MISO
      00000090H.5 SFRSYM    DATA     BIT       SPI_SCLK
      000000A0H.4 SFRSYM    DATA     BIT       SPI_SS_2
      000000A0H.3 SFRSYM    DATA     BIT       SPI_MOSI_2
      000000A0H.2 SFRSYM    DATA     BIT       SPI_MISO_2
      000000A0H.1 SFRSYM    DATA     BIT       SPI_SCLK_2
      000000C8H.4 SFRSYM    DATA     BIT       SPI_SS_3
      000000C0H   SFRSYM    DATA     BIT       SPI_MOSI_3
      000000C0H.1 SFRSYM    DATA     BIT       SPI_MISO_3
      000000C0H.3 SFRSYM    DATA     BIT       SPI_SCLK_3
      000000A0H   SFRSYM    DATA     BIT       P20
      000000A0H.1 SFRSYM    DATA     BIT       P21
      000000A0H.2 SFRSYM    DATA     BIT       P22
      000000A0H.3 SFRSYM    DATA     BIT       P23
      000000A0H.4 SFRSYM    DATA     BIT       P24
      000000A0H.5 SFRSYM    DATA     BIT       P25
      000000A0H.6 SFRSYM    DATA     BIT       P26
      000000A0H.7 SFRSYM    DATA     BIT       P27
      000000B0H   SFRSYM    DATA     BIT       P30
      000000B0H.1 SFRSYM    DATA     BIT       P31
      000000B0H.2 SFRSYM    DATA     BIT       P32
      000000B0H.3 SFRSYM    DATA     BIT       P33
      000000B0H.4 SFRSYM    DATA     BIT       P34
      000000B0H.5 SFRSYM    DATA     BIT       P35
      000000B0H.6 SFRSYM    DATA     BIT       P36
      000000B0H.7 SFRSYM    DATA     BIT       P37
      000000B0H   SFRSYM    DATA     BIT       RXD
      000000B0H.1 SFRSYM    DATA     BIT       TXD
      000000B0H.2 SFRSYM    DATA     BIT       INT0
      000000B0H.3 SFRSYM    DATA     BIT       INT1
      000000B0H.4 SFRSYM    DATA     BIT       T0
      000000B0H.5 SFRSYM    DATA     BIT       T1
      000000B0H.6 SFRSYM    DATA     BIT       WR
      000000B0H.7 SFRSYM    DATA     BIT       RD
      000000B0H.7 SFRSYM    DATA     BIT       CCP2
      000000B0H.5 SFRSYM    DATA     BIT       CLKOUT0
      000000B0H.4 SFRSYM    DATA     BIT       CLKOUT1
      000000C0H   SFRSYM    DATA     BIT       P40
      000000C0H.1 SFRSYM    DATA     BIT       P41
      000000C0H.2 SFRSYM    DATA     BIT       P42
      000000C0H.3 SFRSYM    DATA     BIT       P43
      000000C0H.4 SFRSYM    DATA     BIT       P44
      000000C0H.5 SFRSYM    DATA     BIT       P45
      000000C0H.6 SFRSYM    DATA     BIT       P46
      000000C0H.7 SFRSYM    DATA     BIT       P47
      000000C8H   SFRSYM    DATA     BIT       P50
      000000C8H.1 SFRSYM    DATA     BIT       P51
      000000C8H.2 SFRSYM    DATA     BIT       P52
      000000C8H.3 SFRSYM    DATA     BIT       P53
      000000C8H.4 SFRSYM    DATA     BIT       P54
      000000C8H.5 SFRSYM    DATA     BIT       P55
      000000C8H.6 SFRSYM    DATA     BIT       P56
      000000C8H.7 SFRSYM    DATA     BIT       P57
      00000098H.7 SFRSYM    DATA     BIT       SM0
      00000098H.6 SFRSYM    DATA     BIT       SM1
LX51 LINKER/LOCATER V4.41                                                             11/18/2015  10:20:10  PAGE 86


      00000098H.5 SFRSYM    DATA     BIT       SM2
      00000098H.4 SFRSYM    DATA     BIT       REN
      00000098H.3 SFRSYM    DATA     BIT       TB8
      00000098H.2 SFRSYM    DATA     BIT       RB8
      00000098H.1 SFRSYM    DATA     BIT       TI
      00000098H   SFRSYM    DATA     BIT       RI
      000000A8H.7 SFRSYM    DATA     BIT       EA
      000000A8H.6 SFRSYM    DATA     BIT       ELVD
      000000A8H.5 SFRSYM    DATA     BIT       EADC
      000000A8H.4 SFRSYM    DATA     BIT       ES
      000000A8H.3 SFRSYM    DATA     BIT       ET1
      000000A8H.2 SFRSYM    DATA     BIT       EX1
      000000A8H.1 SFRSYM    DATA     BIT       ET0
      000000A8H   SFRSYM    DATA     BIT       EX0
      000000E0H   SFRSYM    DATA     BIT       ACC0
      000000E0H.1 SFRSYM    DATA     BIT       ACC1
      000000E0H.2 SFRSYM    DATA     BIT       ACC2
      000000E0H.3 SFRSYM    DATA     BIT       ACC3
      000000E0H.4 SFRSYM    DATA     BIT       ACC4
      000000E0H.5 SFRSYM    DATA     BIT       ACC5
      000000E0H.6 SFRSYM    DATA     BIT       ACC6
      000000E0H.7 SFRSYM    DATA     BIT       ACC7
      000000F0H   SFRSYM    DATA     BIT       B0
      000000F0H.1 SFRSYM    DATA     BIT       B1
      000000F0H.2 SFRSYM    DATA     BIT       B2
      000000F0H.3 SFRSYM    DATA     BIT       B3
      000000F0H.4 SFRSYM    DATA     BIT       B4
      000000F0H.5 SFRSYM    DATA     BIT       B5
      000000F0H.6 SFRSYM    DATA     BIT       B6
      000000F0H.7 SFRSYM    DATA     BIT       B7
      000000B8H.7 SFRSYM    DATA     BIT       PPCA
      000000B8H.6 SFRSYM    DATA     BIT       PLVD
      000000B8H.5 SFRSYM    DATA     BIT       PADC
      000000B8H.4 SFRSYM    DATA     BIT       PS
      000000B8H.3 SFRSYM    DATA     BIT       PT1
      000000B8H.2 SFRSYM    DATA     BIT       PX1
      000000B8H.1 SFRSYM    DATA     BIT       PT0
      000000B8H   SFRSYM    DATA     BIT       PX0
      000000D8H   SFRSYM    DATA     BIT       CCF0
      000000D8H.1 SFRSYM    DATA     BIT       CCF1
      000000D8H.2 SFRSYM    DATA     BIT       CCF2
      000000D8H.6 SFRSYM    DATA     BIT       CR
      000000D8H.7 SFRSYM    DATA     BIT       CF

      01003595H   BLOCK     CODE     ---       LVL=0
      00000001H   SYMBOL    DATA     ---       ADCx
      01003595H   LINE      CODE     ---       #13
      01003595H   LINE      CODE     ---       #14
      01003595H   LINE      CODE     ---       #15
      0100359AH   LINE      CODE     ---       #16
      010035A8H   LINE      CODE     ---       #17
      010035B6H   LINE      CODE     ---       #18
      010035B9H   LINE      CODE     ---       #19
      010035C7H   LINE      CODE     ---       #20
      010035CAH   LINE      CODE     ---       #21
      010035D7H   LINE      CODE     ---       #22
      010035D9H   LINE      CODE     ---       #23
      010035E5H   LINE      CODE     ---       #24
      010035E7H   LINE      CODE     ---       #25
      ---         BLOCKEND  ---      ---       LVL=0

      0100000EH   BLOCK     CODE     ---       LVL=0
      00000007H   SYMBOL    DATA     BYTE      pwr
      0100000EH   LINE      CODE     ---       #35
      0100000EH   LINE      CODE     ---       #36
LX51 LINKER/LOCATER V4.41                                                             11/18/2015  10:20:10  PAGE 87


      0100000EH   LINE      CODE     ---       #37
      01000016H   LINE      CODE     ---       #38
      01000019H   LINE      CODE     ---       #39
      ---         BLOCKEND  ---      ---       LVL=0

      01003537H   BLOCK     CODE     ---       LVL=0
      00000007H   SYMBOL    DATA     BYTE      channel
      01003537H   BLOCK     CODE     NEAR LAB  LVL=1
      00000004H   SYMBOL    DATA     WORD      adc
      00000003H   SYMBOL    DATA     BYTE      i
      ---         BLOCKEND  ---      ---       LVL=1
      01003537H   LINE      CODE     ---       #48
      01003537H   LINE      CODE     ---       #49
      01003537H   LINE      CODE     ---       #53
      0100353FH   LINE      CODE     ---       #54
      01003542H   LINE      CODE     ---       #55
      01003544H   LINE      CODE     ---       #57
      0100354DH   LINE      CODE     ---       #58
      01003551H   LINE      CODE     ---       #60
      01003553H   LINE      CODE     ---       #61
      01003553H   LINE      CODE     ---       #62
      01003558H   LINE      CODE     ---       #63
      01003558H   LINE      CODE     ---       #64
      0100355BH   LINE      CODE     ---       #65
      01003560H   LINE      CODE     ---       #66
      01003560H   LINE      CODE     ---       #67
      01003564H   LINE      CODE     ---       #68
      01003567H   LINE      CODE     ---       #69
      01003569H   LINE      CODE     ---       #71
      01003569H   LINE      CODE     ---       #72
      0100356FH   LINE      CODE     ---       #73
      01003586H   LINE      CODE     ---       #74
      01003586H   LINE      CODE     ---       #75
      0100358BH   LINE      CODE     ---       #76
      0100358BH   LINE      CODE     ---       #77
      01003590H   LINE      CODE     ---       #78
      01003594H   LINE      CODE     ---       #79
      ---         BLOCKEND  ---      ---       LVL=0

      01003B5FH   BLOCK     CODE     ---       LVL=0
      01003B5FH   LINE      CODE     ---       #89
      01003B5FH   LINE      CODE     ---       #91
      01003B62H   LINE      CODE     ---       #92
      ---         BLOCKEND  ---      ---       LVL=0

      ---         MODULE    ---      ---       EEPROM
      02000585H   PUBLIC    XDATA    BYTE      ?_EEPROM_write_n?BYTE
      01003791H   PUBLIC    CODE     ---       _EEPROM_write_n
      01003A56H   PUBLIC    CODE     ---       _EEPROM_SectorErase
      0200022BH   PUBLIC    XDATA    BYTE      ?_EEPROM_read_n?BYTE
      01003752H   PUBLIC    CODE     ---       _EEPROM_read_n
      01003B47H   PUBLIC    CODE     ---       DisableEEPROM
      00000080H   SFRSYM    DATA     BYTE      P0
      00000081H   SFRSYM    DATA     BYTE      SP
      00000082H   SFRSYM    DATA     BYTE      DPL
      00000083H   SFRSYM    DATA     BYTE      DPH
      00000084H   SFRSYM    DATA     BYTE      S4CON
      00000085H   SFRSYM    DATA     BYTE      S4BUF
      00000087H   SFRSYM    DATA     BYTE      PCON
      00000088H   SFRSYM    DATA     BYTE      TCON
      00000089H   SFRSYM    DATA     BYTE      TMOD
      0000008AH   SFRSYM    DATA     BYTE      TL0
      0000008BH   SFRSYM    DATA     BYTE      TL1
      0000008CH   SFRSYM    DATA     BYTE      TH0
      0000008DH   SFRSYM    DATA     BYTE      TH1
LX51 LINKER/LOCATER V4.41                                                             11/18/2015  10:20:10  PAGE 88


      0000008EH   SFRSYM    DATA     BYTE      AUXR
      0000008FH   SFRSYM    DATA     BYTE      WAKE_CLKO
      0000008FH   SFRSYM    DATA     BYTE      INT_CLKO
      0000008FH   SFRSYM    DATA     BYTE      AUXR2
      0000008AH   SFRSYM    DATA     BYTE      RL_TL0
      0000008BH   SFRSYM    DATA     BYTE      RL_TL1
      0000008CH   SFRSYM    DATA     BYTE      RL_TH0
      0000008DH   SFRSYM    DATA     BYTE      RL_TH1
      00000090H   SFRSYM    DATA     BYTE      P1
      00000091H   SFRSYM    DATA     BYTE      P1M1
      00000092H   SFRSYM    DATA     BYTE      P1M0
      00000093H   SFRSYM    DATA     BYTE      P0M1
      00000094H   SFRSYM    DATA     BYTE      P0M0
      00000095H   SFRSYM    DATA     BYTE      P2M1
      00000096H   SFRSYM    DATA     BYTE      P2M0
      00000097H   SFRSYM    DATA     BYTE      CLK_DIV
      00000097H   SFRSYM    DATA     BYTE      PCON2
      00000098H   SFRSYM    DATA     BYTE      SCON
      00000099H   SFRSYM    DATA     BYTE      SBUF
      0000009AH   SFRSYM    DATA     BYTE      S2CON
      0000009BH   SFRSYM    DATA     BYTE      S2BUF
      0000009DH   SFRSYM    DATA     BYTE      P1ASF
      000000A0H   SFRSYM    DATA     BYTE      P2
      000000A1H   SFRSYM    DATA     BYTE      BUS_SPEED
      000000A2H   SFRSYM    DATA     BYTE      AUXR1
      000000A2H   SFRSYM    DATA     BYTE      P_SW1
      000000A8H   SFRSYM    DATA     BYTE      IE
      000000A9H   SFRSYM    DATA     BYTE      SADDR
      000000AAH   SFRSYM    DATA     BYTE      WKTCL
      000000ABH   SFRSYM    DATA     BYTE      WKTCH
      000000ACH   SFRSYM    DATA     BYTE      S3CON
      000000ADH   SFRSYM    DATA     BYTE      S3BUF
      000000AFH   SFRSYM    DATA     BYTE      IE2
      000000B0H   SFRSYM    DATA     BYTE      P3
      000000B1H   SFRSYM    DATA     BYTE      P3M1
      000000B2H   SFRSYM    DATA     BYTE      P3M0
      000000B3H   SFRSYM    DATA     BYTE      P4M1
      000000B4H   SFRSYM    DATA     BYTE      P4M0
      000000B5H   SFRSYM    DATA     BYTE      IP2
      000000B6H   SFRSYM    DATA     BYTE      IPH2
      000000B7H   SFRSYM    DATA     BYTE      IPH
      000000B8H   SFRSYM    DATA     BYTE      IP
      000000B9H   SFRSYM    DATA     BYTE      SADEN
      000000BAH   SFRSYM    DATA     BYTE      P_SW2
      000000BCH   SFRSYM    DATA     BYTE      ADC_CONTR
      000000BDH   SFRSYM    DATA     BYTE      ADC_RES
      000000BEH   SFRSYM    DATA     BYTE      ADC_RESL
      000000C0H   SFRSYM    DATA     BYTE      P4
      000000C1H   SFRSYM    DATA     BYTE      WDT_CONTR
      000000C2H   SFRSYM    DATA     BYTE      IAP_DATA
      000000C3H   SFRSYM    DATA     BYTE      IAP_ADDRH
      000000C4H   SFRSYM    DATA     BYTE      IAP_ADDRL
      000000C5H   SFRSYM    DATA     BYTE      IAP_CMD
      000000C6H   SFRSYM    DATA     BYTE      IAP_TRIG
      000000C7H   SFRSYM    DATA     BYTE      IAP_CONTR
      000000C2H   SFRSYM    DATA     BYTE      ISP_DATA
      000000C3H   SFRSYM    DATA     BYTE      ISP_ADDRH
      000000C4H   SFRSYM    DATA     BYTE      ISP_ADDRL
      000000C5H   SFRSYM    DATA     BYTE      ISP_CMD
      000000C6H   SFRSYM    DATA     BYTE      ISP_TRIG
      000000C7H   SFRSYM    DATA     BYTE      ISP_CONTR
      000000C8H   SFRSYM    DATA     BYTE      P5
      000000C9H   SFRSYM    DATA     BYTE      P5M1
      000000CAH   SFRSYM    DATA     BYTE      P5M0
      000000CBH   SFRSYM    DATA     BYTE      P6M1
LX51 LINKER/LOCATER V4.41                                                             11/18/2015  10:20:10  PAGE 89


      000000CCH   SFRSYM    DATA     BYTE      P6M0
      000000CDH   SFRSYM    DATA     BYTE      SPSTAT
      000000CEH   SFRSYM    DATA     BYTE      SPCTL
      000000CFH   SFRSYM    DATA     BYTE      SPDAT
      000000D0H   SFRSYM    DATA     BYTE      PSW
      000000D1H   SFRSYM    DATA     BYTE      T4T3M
      000000D2H   SFRSYM    DATA     BYTE      T4H
      000000D3H   SFRSYM    DATA     BYTE      T4L
      000000D4H   SFRSYM    DATA     BYTE      T3H
      000000D5H   SFRSYM    DATA     BYTE      T3L
      000000D6H   SFRSYM    DATA     BYTE      T2H
      000000D7H   SFRSYM    DATA     BYTE      T2L
      000000D2H   SFRSYM    DATA     BYTE      TH4
      000000D3H   SFRSYM    DATA     BYTE      TL4
      000000D4H   SFRSYM    DATA     BYTE      TH3
      000000D5H   SFRSYM    DATA     BYTE      TL3
      000000D6H   SFRSYM    DATA     BYTE      TH2
      000000D7H   SFRSYM    DATA     BYTE      TL2
      000000D2H   SFRSYM    DATA     BYTE      RL_T4H
      000000D3H   SFRSYM    DATA     BYTE      RL_T4L
      000000D4H   SFRSYM    DATA     BYTE      RL_T3H
      000000D5H   SFRSYM    DATA     BYTE      RL_T3L
      000000D6H   SFRSYM    DATA     BYTE      RL_T2H
      000000D7H   SFRSYM    DATA     BYTE      RL_T2L
      000000D8H   SFRSYM    DATA     BYTE      CCON
      000000D9H   SFRSYM    DATA     BYTE      CMOD
      000000DAH   SFRSYM    DATA     BYTE      CCAPM0
      000000DBH   SFRSYM    DATA     BYTE      CCAPM1
      000000DCH   SFRSYM    DATA     BYTE      CCAPM2
      000000E0H   SFRSYM    DATA     BYTE      ACC
      000000E1H   SFRSYM    DATA     BYTE      P7M1
      000000E2H   SFRSYM    DATA     BYTE      P7M0
      000000E8H   SFRSYM    DATA     BYTE      P6
      000000E9H   SFRSYM    DATA     BYTE      CL
      000000EAH   SFRSYM    DATA     BYTE      CCAP0L
      000000EBH   SFRSYM    DATA     BYTE      CCAP1L
      000000ECH   SFRSYM    DATA     BYTE      CCAP2L
      000000F0H   SFRSYM    DATA     BYTE      B
      000000F2H   SFRSYM    DATA     BYTE      PCA_PWM0
      000000F3H   SFRSYM    DATA     BYTE      PCA_PWM1
      000000F4H   SFRSYM    DATA     BYTE      PCA_PWM2
      000000F8H   SFRSYM    DATA     BYTE      P7
      000000F9H   SFRSYM    DATA     BYTE      CH
      000000FAH   SFRSYM    DATA     BYTE      CCAP0H
      000000FBH   SFRSYM    DATA     BYTE      CCAP1H
      000000FCH   SFRSYM    DATA     BYTE      CCAP2H
      000000D0H.7 SFRSYM    DATA     BIT       CY
      000000D0H.6 SFRSYM    DATA     BIT       AC
      000000D0H.5 SFRSYM    DATA     BIT       F0
      000000D0H.4 SFRSYM    DATA     BIT       RS1
      000000D0H.3 SFRSYM    DATA     BIT       RS0
      000000D0H.2 SFRSYM    DATA     BIT       OV
      000000D0H.1 SFRSYM    DATA     BIT       F1
      000000D0H   SFRSYM    DATA     BIT       P
      00000088H.7 SFRSYM    DATA     BIT       TF1
      00000088H.6 SFRSYM    DATA     BIT       TR1
      00000088H.5 SFRSYM    DATA     BIT       TF0
      00000088H.4 SFRSYM    DATA     BIT       TR0
      00000088H.3 SFRSYM    DATA     BIT       IE1
      00000088H.2 SFRSYM    DATA     BIT       IT1
      00000088H.1 SFRSYM    DATA     BIT       IE0
      00000088H   SFRSYM    DATA     BIT       IT0
      00000080H   SFRSYM    DATA     BIT       P00
      00000080H.1 SFRSYM    DATA     BIT       P01
      00000080H.2 SFRSYM    DATA     BIT       P02
LX51 LINKER/LOCATER V4.41                                                             11/18/2015  10:20:10  PAGE 90


      00000080H.3 SFRSYM    DATA     BIT       P03
      00000080H.4 SFRSYM    DATA     BIT       P04
      00000080H.5 SFRSYM    DATA     BIT       P05
      00000080H.6 SFRSYM    DATA     BIT       P06
      00000080H.7 SFRSYM    DATA     BIT       P07
      00000090H   SFRSYM    DATA     BIT       P10
      00000090H.1 SFRSYM    DATA     BIT       P11
      00000090H.2 SFRSYM    DATA     BIT       P12
      00000090H.3 SFRSYM    DATA     BIT       P13
      00000090H.4 SFRSYM    DATA     BIT       P14
      00000090H.5 SFRSYM    DATA     BIT       P15
      00000090H.6 SFRSYM    DATA     BIT       P16
      00000090H.7 SFRSYM    DATA     BIT       P17
      00000090H   SFRSYM    DATA     BIT       RXD2
      00000090H.1 SFRSYM    DATA     BIT       TXD2
      00000090H   SFRSYM    DATA     BIT       CCP1
      00000090H.1 SFRSYM    DATA     BIT       CCP0
      00000090H.2 SFRSYM    DATA     BIT       SPI_SS
      00000090H.3 SFRSYM    DATA     BIT       SPI_MOSI
      00000090H.4 SFRSYM    DATA     BIT       SPI_MISO
      00000090H.5 SFRSYM    DATA     BIT       SPI_SCLK
      000000A0H.4 SFRSYM    DATA     BIT       SPI_SS_2
      000000A0H.3 SFRSYM    DATA     BIT       SPI_MOSI_2
      000000A0H.2 SFRSYM    DATA     BIT       SPI_MISO_2
      000000A0H.1 SFRSYM    DATA     BIT       SPI_SCLK_2
      000000C8H.4 SFRSYM    DATA     BIT       SPI_SS_3
      000000C0H   SFRSYM    DATA     BIT       SPI_MOSI_3
      000000C0H.1 SFRSYM    DATA     BIT       SPI_MISO_3
      000000C0H.3 SFRSYM    DATA     BIT       SPI_SCLK_3
      000000A0H   SFRSYM    DATA     BIT       P20
      000000A0H.1 SFRSYM    DATA     BIT       P21
      000000A0H.2 SFRSYM    DATA     BIT       P22
      000000A0H.3 SFRSYM    DATA     BIT       P23
      000000A0H.4 SFRSYM    DATA     BIT       P24
      000000A0H.5 SFRSYM    DATA     BIT       P25
      000000A0H.6 SFRSYM    DATA     BIT       P26
      000000A0H.7 SFRSYM    DATA     BIT       P27
      000000B0H   SFRSYM    DATA     BIT       P30
      000000B0H.1 SFRSYM    DATA     BIT       P31
      000000B0H.2 SFRSYM    DATA     BIT       P32
      000000B0H.3 SFRSYM    DATA     BIT       P33
      000000B0H.4 SFRSYM    DATA     BIT       P34
      000000B0H.5 SFRSYM    DATA     BIT       P35
      000000B0H.6 SFRSYM    DATA     BIT       P36
      000000B0H.7 SFRSYM    DATA     BIT       P37
      000000B0H   SFRSYM    DATA     BIT       RXD
      000000B0H.1 SFRSYM    DATA     BIT       TXD
      000000B0H.2 SFRSYM    DATA     BIT       INT0
      000000B0H.3 SFRSYM    DATA     BIT       INT1
      000000B0H.4 SFRSYM    DATA     BIT       T0
      000000B0H.5 SFRSYM    DATA     BIT       T1
      000000B0H.6 SFRSYM    DATA     BIT       WR
      000000B0H.7 SFRSYM    DATA     BIT       RD
      000000B0H.7 SFRSYM    DATA     BIT       CCP2
      000000B0H.5 SFRSYM    DATA     BIT       CLKOUT0
      000000B0H.4 SFRSYM    DATA     BIT       CLKOUT1
      000000C0H   SFRSYM    DATA     BIT       P40
      000000C0H.1 SFRSYM    DATA     BIT       P41
      000000C0H.2 SFRSYM    DATA     BIT       P42
      000000C0H.3 SFRSYM    DATA     BIT       P43
      000000C0H.4 SFRSYM    DATA     BIT       P44
      000000C0H.5 SFRSYM    DATA     BIT       P45
      000000C0H.6 SFRSYM    DATA     BIT       P46
      000000C0H.7 SFRSYM    DATA     BIT       P47
      000000C8H   SFRSYM    DATA     BIT       P50
LX51 LINKER/LOCATER V4.41                                                             11/18/2015  10:20:10  PAGE 91


      000000C8H.1 SFRSYM    DATA     BIT       P51
      000000C8H.2 SFRSYM    DATA     BIT       P52
      000000C8H.3 SFRSYM    DATA     BIT       P53
      000000C8H.4 SFRSYM    DATA     BIT       P54
      000000C8H.5 SFRSYM    DATA     BIT       P55
      000000C8H.6 SFRSYM    DATA     BIT       P56
      000000C8H.7 SFRSYM    DATA     BIT       P57
      00000098H.7 SFRSYM    DATA     BIT       SM0
      00000098H.6 SFRSYM    DATA     BIT       SM1
      00000098H.5 SFRSYM    DATA     BIT       SM2
      00000098H.4 SFRSYM    DATA     BIT       REN
      00000098H.3 SFRSYM    DATA     BIT       TB8
      00000098H.2 SFRSYM    DATA     BIT       RB8
      00000098H.1 SFRSYM    DATA     BIT       TI
      00000098H   SFRSYM    DATA     BIT       RI
      000000A8H.7 SFRSYM    DATA     BIT       EA
      000000A8H.6 SFRSYM    DATA     BIT       ELVD
      000000A8H.5 SFRSYM    DATA     BIT       EADC
      000000A8H.4 SFRSYM    DATA     BIT       ES
      000000A8H.3 SFRSYM    DATA     BIT       ET1
      000000A8H.2 SFRSYM    DATA     BIT       EX1
      000000A8H.1 SFRSYM    DATA     BIT       ET0
      000000A8H   SFRSYM    DATA     BIT       EX0
      000000E0H   SFRSYM    DATA     BIT       ACC0
      000000E0H.1 SFRSYM    DATA     BIT       ACC1
      000000E0H.2 SFRSYM    DATA     BIT       ACC2
      000000E0H.3 SFRSYM    DATA     BIT       ACC3
      000000E0H.4 SFRSYM    DATA     BIT       ACC4
      000000E0H.5 SFRSYM    DATA     BIT       ACC5
      000000E0H.6 SFRSYM    DATA     BIT       ACC6
      000000E0H.7 SFRSYM    DATA     BIT       ACC7
      000000F0H   SFRSYM    DATA     BIT       B0
      000000F0H.1 SFRSYM    DATA     BIT       B1
      000000F0H.2 SFRSYM    DATA     BIT       B2
      000000F0H.3 SFRSYM    DATA     BIT       B3
      000000F0H.4 SFRSYM    DATA     BIT       B4
      000000F0H.5 SFRSYM    DATA     BIT       B5
      000000F0H.6 SFRSYM    DATA     BIT       B6
      000000F0H.7 SFRSYM    DATA     BIT       B7
      000000B8H.7 SFRSYM    DATA     BIT       PPCA
      000000B8H.6 SFRSYM    DATA     BIT       PLVD
      000000B8H.5 SFRSYM    DATA     BIT       PADC
      000000B8H.4 SFRSYM    DATA     BIT       PS
      000000B8H.3 SFRSYM    DATA     BIT       PT1
      000000B8H.2 SFRSYM    DATA     BIT       PX1
      000000B8H.1 SFRSYM    DATA     BIT       PT0
      000000B8H   SFRSYM    DATA     BIT       PX0
      000000D8H   SFRSYM    DATA     BIT       CCF0
      000000D8H.1 SFRSYM    DATA     BIT       CCF1
      000000D8H.2 SFRSYM    DATA     BIT       CCF2
      000000D8H.6 SFRSYM    DATA     BIT       CR
      000000D8H.7 SFRSYM    DATA     BIT       CF

      01003B47H   BLOCK     CODE     ---       LVL=0
      01003B47H   LINE      CODE     ---       #15
      01003B47H   LINE      CODE     ---       #16
      01003B47H   LINE      CODE     ---       #17
      01003B4AH   LINE      CODE     ---       #18
      01003B4CH   LINE      CODE     ---       #19
      01003B4EH   LINE      CODE     ---       #20
      01003B51H   LINE      CODE     ---       #21
      01003B54H   LINE      CODE     ---       #22
      ---         BLOCKEND  ---      ---       LVL=0

      01003752H   BLOCK     CODE     ---       LVL=0
LX51 LINKER/LOCATER V4.41                                                             11/18/2015  10:20:10  PAGE 92


      00000004H   SYMBOL    DATA     WORD      EE_address
      00000001H   SYMBOL    DATA     ---       DataAddress
      02000230H   SYMBOL    XDATA    WORD      number
      01003752H   LINE      CODE     ---       #34
      01003756H   LINE      CODE     ---       #35
      01003756H   LINE      CODE     ---       #36
      01003758H   LINE      CODE     ---       #37
      0100375BH   LINE      CODE     ---       #38
      0100375EH   LINE      CODE     ---       #40
      0100375EH   LINE      CODE     ---       #41
      01003761H   LINE      CODE     ---       #42
      01003765H   LINE      CODE     ---       #43
      0100376BH   LINE      CODE     ---       #46
      0100376CH   LINE      CODE     ---       #47
      01003771H   LINE      CODE     ---       #48
      01003776H   LINE      CODE     ---       #49
      0100377DH   LINE      CODE     ---       #50
      0100378BH   LINE      CODE     ---       #52
      0100378EH   LINE      CODE     ---       #53
      01003790H   LINE      CODE     ---       #54
      ---         BLOCKEND  ---      ---       LVL=0

      01003A56H   BLOCK     CODE     ---       LVL=0
      00000004H   SYMBOL    DATA     WORD      EE_address
      01003A56H   LINE      CODE     ---       #65
      01003A5AH   LINE      CODE     ---       #66
      01003A5AH   LINE      CODE     ---       #67
      01003A5CH   LINE      CODE     ---       #70
      01003A5FH   LINE      CODE     ---       #71
      01003A63H   LINE      CODE     ---       #72
      01003A66H   LINE      CODE     ---       #73
      01003A69H   LINE      CODE     ---       #74
      01003A6FH   LINE      CODE     ---       #75
      01003A70H   LINE      CODE     ---       #76
      01003A73H   LINE      CODE     ---       #77
      01003A75H   LINE      CODE     ---       #78
      ---         BLOCKEND  ---      ---       LVL=0

      01003791H   BLOCK     CODE     ---       LVL=0
      00000004H   SYMBOL    DATA     WORD      EE_address
      00000001H   SYMBOL    DATA     ---       DataAddress
      0200058AH   SYMBOL    XDATA    WORD      number
      01003791H   LINE      CODE     ---       #89
      01003795H   LINE      CODE     ---       #90
      01003795H   LINE      CODE     ---       #91
      01003797H   LINE      CODE     ---       #93
      0100379AH   LINE      CODE     ---       #94
      0100379DH   LINE      CODE     ---       #96
      0100379DH   LINE      CODE     ---       #97
      010037A0H   LINE      CODE     ---       #98
      010037A4H   LINE      CODE     ---       #99
      010037A9H   LINE      CODE     ---       #100
      010037AFH   LINE      CODE     ---       #101
      010037B0H   LINE      CODE     ---       #102
      010037B5H   LINE      CODE     ---       #103
      010037BCH   LINE      CODE     ---       #104
      010037CAH   LINE      CODE     ---       #106
      010037CDH   LINE      CODE     ---       #107
      010037CFH   LINE      CODE     ---       #108
      ---         BLOCKEND  ---      ---       LVL=0

      ---         MODULE    ---      ---       GPIO
      01001575H   PUBLIC    CODE     ---       _GPIO_Inilize
      00000080H   SFRSYM    DATA     BYTE      P0
      00000081H   SFRSYM    DATA     BYTE      SP
LX51 LINKER/LOCATER V4.41                                                             11/18/2015  10:20:10  PAGE 93


      00000082H   SFRSYM    DATA     BYTE      DPL
      00000083H   SFRSYM    DATA     BYTE      DPH
      00000084H   SFRSYM    DATA     BYTE      S4CON
      00000085H   SFRSYM    DATA     BYTE      S4BUF
      00000087H   SFRSYM    DATA     BYTE      PCON
      00000088H   SFRSYM    DATA     BYTE      TCON
      00000089H   SFRSYM    DATA     BYTE      TMOD
      0000008AH   SFRSYM    DATA     BYTE      TL0
      0000008BH   SFRSYM    DATA     BYTE      TL1
      0000008CH   SFRSYM    DATA     BYTE      TH0
      0000008DH   SFRSYM    DATA     BYTE      TH1
      0000008EH   SFRSYM    DATA     BYTE      AUXR
      0000008FH   SFRSYM    DATA     BYTE      WAKE_CLKO
      0000008FH   SFRSYM    DATA     BYTE      INT_CLKO
      0000008FH   SFRSYM    DATA     BYTE      AUXR2
      0000008AH   SFRSYM    DATA     BYTE      RL_TL0
      0000008BH   SFRSYM    DATA     BYTE      RL_TL1
      0000008CH   SFRSYM    DATA     BYTE      RL_TH0
      0000008DH   SFRSYM    DATA     BYTE      RL_TH1
      00000090H   SFRSYM    DATA     BYTE      P1
      00000091H   SFRSYM    DATA     BYTE      P1M1
      00000092H   SFRSYM    DATA     BYTE      P1M0
      00000093H   SFRSYM    DATA     BYTE      P0M1
      00000094H   SFRSYM    DATA     BYTE      P0M0
      00000095H   SFRSYM    DATA     BYTE      P2M1
      00000096H   SFRSYM    DATA     BYTE      P2M0
      00000097H   SFRSYM    DATA     BYTE      CLK_DIV
      00000097H   SFRSYM    DATA     BYTE      PCON2
      00000098H   SFRSYM    DATA     BYTE      SCON
      00000099H   SFRSYM    DATA     BYTE      SBUF
      0000009AH   SFRSYM    DATA     BYTE      S2CON
      0000009BH   SFRSYM    DATA     BYTE      S2BUF
      0000009DH   SFRSYM    DATA     BYTE      P1ASF
      000000A0H   SFRSYM    DATA     BYTE      P2
      000000A1H   SFRSYM    DATA     BYTE      BUS_SPEED
      000000A2H   SFRSYM    DATA     BYTE      AUXR1
      000000A2H   SFRSYM    DATA     BYTE      P_SW1
      000000A8H   SFRSYM    DATA     BYTE      IE
      000000A9H   SFRSYM    DATA     BYTE      SADDR
      000000AAH   SFRSYM    DATA     BYTE      WKTCL
      000000ABH   SFRSYM    DATA     BYTE      WKTCH
      000000ACH   SFRSYM    DATA     BYTE      S3CON
      000000ADH   SFRSYM    DATA     BYTE      S3BUF
      000000AFH   SFRSYM    DATA     BYTE      IE2
      000000B0H   SFRSYM    DATA     BYTE      P3
      000000B1H   SFRSYM    DATA     BYTE      P3M1
      000000B2H   SFRSYM    DATA     BYTE      P3M0
      000000B3H   SFRSYM    DATA     BYTE      P4M1
      000000B4H   SFRSYM    DATA     BYTE      P4M0
      000000B5H   SFRSYM    DATA     BYTE      IP2
      000000B6H   SFRSYM    DATA     BYTE      IPH2
      000000B7H   SFRSYM    DATA     BYTE      IPH
      000000B8H   SFRSYM    DATA     BYTE      IP
      000000B9H   SFRSYM    DATA     BYTE      SADEN
      000000BAH   SFRSYM    DATA     BYTE      P_SW2
      000000BCH   SFRSYM    DATA     BYTE      ADC_CONTR
      000000BDH   SFRSYM    DATA     BYTE      ADC_RES
      000000BEH   SFRSYM    DATA     BYTE      ADC_RESL
      000000C0H   SFRSYM    DATA     BYTE      P4
      000000C1H   SFRSYM    DATA     BYTE      WDT_CONTR
      000000C2H   SFRSYM    DATA     BYTE      IAP_DATA
      000000C3H   SFRSYM    DATA     BYTE      IAP_ADDRH
      000000C4H   SFRSYM    DATA     BYTE      IAP_ADDRL
      000000C5H   SFRSYM    DATA     BYTE      IAP_CMD
      000000C6H   SFRSYM    DATA     BYTE      IAP_TRIG
LX51 LINKER/LOCATER V4.41                                                             11/18/2015  10:20:10  PAGE 94


      000000C7H   SFRSYM    DATA     BYTE      IAP_CONTR
      000000C2H   SFRSYM    DATA     BYTE      ISP_DATA
      000000C3H   SFRSYM    DATA     BYTE      ISP_ADDRH
      000000C4H   SFRSYM    DATA     BYTE      ISP_ADDRL
      000000C5H   SFRSYM    DATA     BYTE      ISP_CMD
      000000C6H   SFRSYM    DATA     BYTE      ISP_TRIG
      000000C7H   SFRSYM    DATA     BYTE      ISP_CONTR
      000000C8H   SFRSYM    DATA     BYTE      P5
      000000C9H   SFRSYM    DATA     BYTE      P5M1
      000000CAH   SFRSYM    DATA     BYTE      P5M0
      000000CBH   SFRSYM    DATA     BYTE      P6M1
      000000CCH   SFRSYM    DATA     BYTE      P6M0
      000000CDH   SFRSYM    DATA     BYTE      SPSTAT
      000000CEH   SFRSYM    DATA     BYTE      SPCTL
      000000CFH   SFRSYM    DATA     BYTE      SPDAT
      000000D0H   SFRSYM    DATA     BYTE      PSW
      000000D1H   SFRSYM    DATA     BYTE      T4T3M
      000000D2H   SFRSYM    DATA     BYTE      T4H
      000000D3H   SFRSYM    DATA     BYTE      T4L
      000000D4H   SFRSYM    DATA     BYTE      T3H
      000000D5H   SFRSYM    DATA     BYTE      T3L
      000000D6H   SFRSYM    DATA     BYTE      T2H
      000000D7H   SFRSYM    DATA     BYTE      T2L
      000000D2H   SFRSYM    DATA     BYTE      TH4
      000000D3H   SFRSYM    DATA     BYTE      TL4
      000000D4H   SFRSYM    DATA     BYTE      TH3
      000000D5H   SFRSYM    DATA     BYTE      TL3
      000000D6H   SFRSYM    DATA     BYTE      TH2
      000000D7H   SFRSYM    DATA     BYTE      TL2
      000000D2H   SFRSYM    DATA     BYTE      RL_T4H
      000000D3H   SFRSYM    DATA     BYTE      RL_T4L
      000000D4H   SFRSYM    DATA     BYTE      RL_T3H
      000000D5H   SFRSYM    DATA     BYTE      RL_T3L
      000000D6H   SFRSYM    DATA     BYTE      RL_T2H
      000000D7H   SFRSYM    DATA     BYTE      RL_T2L
      000000D8H   SFRSYM    DATA     BYTE      CCON
      000000D9H   SFRSYM    DATA     BYTE      CMOD
      000000DAH   SFRSYM    DATA     BYTE      CCAPM0
      000000DBH   SFRSYM    DATA     BYTE      CCAPM1
      000000DCH   SFRSYM    DATA     BYTE      CCAPM2
      000000E0H   SFRSYM    DATA     BYTE      ACC
      000000E1H   SFRSYM    DATA     BYTE      P7M1
      000000E2H   SFRSYM    DATA     BYTE      P7M0
      000000E8H   SFRSYM    DATA     BYTE      P6
      000000E9H   SFRSYM    DATA     BYTE      CL
      000000EAH   SFRSYM    DATA     BYTE      CCAP0L
      000000EBH   SFRSYM    DATA     BYTE      CCAP1L
      000000ECH   SFRSYM    DATA     BYTE      CCAP2L
      000000F0H   SFRSYM    DATA     BYTE      B
      000000F2H   SFRSYM    DATA     BYTE      PCA_PWM0
      000000F3H   SFRSYM    DATA     BYTE      PCA_PWM1
      000000F4H   SFRSYM    DATA     BYTE      PCA_PWM2
      000000F8H   SFRSYM    DATA     BYTE      P7
      000000F9H   SFRSYM    DATA     BYTE      CH
      000000FAH   SFRSYM    DATA     BYTE      CCAP0H
      000000FBH   SFRSYM    DATA     BYTE      CCAP1H
      000000FCH   SFRSYM    DATA     BYTE      CCAP2H
      000000D0H.7 SFRSYM    DATA     BIT       CY
      000000D0H.6 SFRSYM    DATA     BIT       AC
      000000D0H.5 SFRSYM    DATA     BIT       F0
      000000D0H.4 SFRSYM    DATA     BIT       RS1
      000000D0H.3 SFRSYM    DATA     BIT       RS0
      000000D0H.2 SFRSYM    DATA     BIT       OV
      000000D0H.1 SFRSYM    DATA     BIT       F1
      000000D0H   SFRSYM    DATA     BIT       P
LX51 LINKER/LOCATER V4.41                                                             11/18/2015  10:20:10  PAGE 95


      00000088H.7 SFRSYM    DATA     BIT       TF1
      00000088H.6 SFRSYM    DATA     BIT       TR1
      00000088H.5 SFRSYM    DATA     BIT       TF0
      00000088H.4 SFRSYM    DATA     BIT       TR0
      00000088H.3 SFRSYM    DATA     BIT       IE1
      00000088H.2 SFRSYM    DATA     BIT       IT1
      00000088H.1 SFRSYM    DATA     BIT       IE0
      00000088H   SFRSYM    DATA     BIT       IT0
      00000080H   SFRSYM    DATA     BIT       P00
      00000080H.1 SFRSYM    DATA     BIT       P01
      00000080H.2 SFRSYM    DATA     BIT       P02
      00000080H.3 SFRSYM    DATA     BIT       P03
      00000080H.4 SFRSYM    DATA     BIT       P04
      00000080H.5 SFRSYM    DATA     BIT       P05
      00000080H.6 SFRSYM    DATA     BIT       P06
      00000080H.7 SFRSYM    DATA     BIT       P07
      00000090H   SFRSYM    DATA     BIT       P10
      00000090H.1 SFRSYM    DATA     BIT       P11
      00000090H.2 SFRSYM    DATA     BIT       P12
      00000090H.3 SFRSYM    DATA     BIT       P13
      00000090H.4 SFRSYM    DATA     BIT       P14
      00000090H.5 SFRSYM    DATA     BIT       P15
      00000090H.6 SFRSYM    DATA     BIT       P16
      00000090H.7 SFRSYM    DATA     BIT       P17
      00000090H   SFRSYM    DATA     BIT       RXD2
      00000090H.1 SFRSYM    DATA     BIT       TXD2
      00000090H   SFRSYM    DATA     BIT       CCP1
      00000090H.1 SFRSYM    DATA     BIT       CCP0
      00000090H.2 SFRSYM    DATA     BIT       SPI_SS
      00000090H.3 SFRSYM    DATA     BIT       SPI_MOSI
      00000090H.4 SFRSYM    DATA     BIT       SPI_MISO
      00000090H.5 SFRSYM    DATA     BIT       SPI_SCLK
      000000A0H.4 SFRSYM    DATA     BIT       SPI_SS_2
      000000A0H.3 SFRSYM    DATA     BIT       SPI_MOSI_2
      000000A0H.2 SFRSYM    DATA     BIT       SPI_MISO_2
      000000A0H.1 SFRSYM    DATA     BIT       SPI_SCLK_2
      000000C8H.4 SFRSYM    DATA     BIT       SPI_SS_3
      000000C0H   SFRSYM    DATA     BIT       SPI_MOSI_3
      000000C0H.1 SFRSYM    DATA     BIT       SPI_MISO_3
      000000C0H.3 SFRSYM    DATA     BIT       SPI_SCLK_3
      000000A0H   SFRSYM    DATA     BIT       P20
      000000A0H.1 SFRSYM    DATA     BIT       P21
      000000A0H.2 SFRSYM    DATA     BIT       P22
      000000A0H.3 SFRSYM    DATA     BIT       P23
      000000A0H.4 SFRSYM    DATA     BIT       P24
      000000A0H.5 SFRSYM    DATA     BIT       P25
      000000A0H.6 SFRSYM    DATA     BIT       P26
      000000A0H.7 SFRSYM    DATA     BIT       P27
      000000B0H   SFRSYM    DATA     BIT       P30
      000000B0H.1 SFRSYM    DATA     BIT       P31
      000000B0H.2 SFRSYM    DATA     BIT       P32
      000000B0H.3 SFRSYM    DATA     BIT       P33
      000000B0H.4 SFRSYM    DATA     BIT       P34
      000000B0H.5 SFRSYM    DATA     BIT       P35
      000000B0H.6 SFRSYM    DATA     BIT       P36
      000000B0H.7 SFRSYM    DATA     BIT       P37
      000000B0H   SFRSYM    DATA     BIT       RXD
      000000B0H.1 SFRSYM    DATA     BIT       TXD
      000000B0H.2 SFRSYM    DATA     BIT       INT0
      000000B0H.3 SFRSYM    DATA     BIT       INT1
      000000B0H.4 SFRSYM    DATA     BIT       T0
      000000B0H.5 SFRSYM    DATA     BIT       T1
      000000B0H.6 SFRSYM    DATA     BIT       WR
      000000B0H.7 SFRSYM    DATA     BIT       RD
      000000B0H.7 SFRSYM    DATA     BIT       CCP2
LX51 LINKER/LOCATER V4.41                                                             11/18/2015  10:20:10  PAGE 96


      000000B0H.5 SFRSYM    DATA     BIT       CLKOUT0
      000000B0H.4 SFRSYM    DATA     BIT       CLKOUT1
      000000C0H   SFRSYM    DATA     BIT       P40
      000000C0H.1 SFRSYM    DATA     BIT       P41
      000000C0H.2 SFRSYM    DATA     BIT       P42
      000000C0H.3 SFRSYM    DATA     BIT       P43
      000000C0H.4 SFRSYM    DATA     BIT       P44
      000000C0H.5 SFRSYM    DATA     BIT       P45
      000000C0H.6 SFRSYM    DATA     BIT       P46
      000000C0H.7 SFRSYM    DATA     BIT       P47
      000000C8H   SFRSYM    DATA     BIT       P50
      000000C8H.1 SFRSYM    DATA     BIT       P51
      000000C8H.2 SFRSYM    DATA     BIT       P52
      000000C8H.3 SFRSYM    DATA     BIT       P53
      000000C8H.4 SFRSYM    DATA     BIT       P54
      000000C8H.5 SFRSYM    DATA     BIT       P55
      000000C8H.6 SFRSYM    DATA     BIT       P56
      000000C8H.7 SFRSYM    DATA     BIT       P57
      00000098H.7 SFRSYM    DATA     BIT       SM0
      00000098H.6 SFRSYM    DATA     BIT       SM1
      00000098H.5 SFRSYM    DATA     BIT       SM2
      00000098H.4 SFRSYM    DATA     BIT       REN
      00000098H.3 SFRSYM    DATA     BIT       TB8
      00000098H.2 SFRSYM    DATA     BIT       RB8
      00000098H.1 SFRSYM    DATA     BIT       TI
      00000098H   SFRSYM    DATA     BIT       RI
      000000A8H.7 SFRSYM    DATA     BIT       EA
      000000A8H.6 SFRSYM    DATA     BIT       ELVD
      000000A8H.5 SFRSYM    DATA     BIT       EADC
      000000A8H.4 SFRSYM    DATA     BIT       ES
      000000A8H.3 SFRSYM    DATA     BIT       ET1
      000000A8H.2 SFRSYM    DATA     BIT       EX1
      000000A8H.1 SFRSYM    DATA     BIT       ET0
      000000A8H   SFRSYM    DATA     BIT       EX0
      000000E0H   SFRSYM    DATA     BIT       ACC0
      000000E0H.1 SFRSYM    DATA     BIT       ACC1
      000000E0H.2 SFRSYM    DATA     BIT       ACC2
      000000E0H.3 SFRSYM    DATA     BIT       ACC3
      000000E0H.4 SFRSYM    DATA     BIT       ACC4
      000000E0H.5 SFRSYM    DATA     BIT       ACC5
      000000E0H.6 SFRSYM    DATA     BIT       ACC6
      000000E0H.7 SFRSYM    DATA     BIT       ACC7
      000000F0H   SFRSYM    DATA     BIT       B0
      000000F0H.1 SFRSYM    DATA     BIT       B1
      000000F0H.2 SFRSYM    DATA     BIT       B2
      000000F0H.3 SFRSYM    DATA     BIT       B3
      000000F0H.4 SFRSYM    DATA     BIT       B4
      000000F0H.5 SFRSYM    DATA     BIT       B5
      000000F0H.6 SFRSYM    DATA     BIT       B6
      000000F0H.7 SFRSYM    DATA     BIT       B7
      000000B8H.7 SFRSYM    DATA     BIT       PPCA
      000000B8H.6 SFRSYM    DATA     BIT       PLVD
      000000B8H.5 SFRSYM    DATA     BIT       PADC
      000000B8H.4 SFRSYM    DATA     BIT       PS
      000000B8H.3 SFRSYM    DATA     BIT       PT1
      000000B8H.2 SFRSYM    DATA     BIT       PX1
      000000B8H.1 SFRSYM    DATA     BIT       PT0
      000000B8H   SFRSYM    DATA     BIT       PX0
      000000D8H   SFRSYM    DATA     BIT       CCF0
      000000D8H.1 SFRSYM    DATA     BIT       CCF1
      000000D8H.2 SFRSYM    DATA     BIT       CCF2
      000000D8H.6 SFRSYM    DATA     BIT       CR
      000000D8H.7 SFRSYM    DATA     BIT       CF

      01001575H   BLOCK     CODE     ---       LVL=0
LX51 LINKER/LOCATER V4.41                                                             11/18/2015  10:20:10  PAGE 97


      00000007H   SYMBOL    DATA     BYTE      GPIO
      00000001H   SYMBOL    DATA     ---       GPIOx
      01001575H   LINE      CODE     ---       #19
      01001575H   LINE      CODE     ---       #20
      01001575H   LINE      CODE     ---       #21
      0100157EH   LINE      CODE     ---       #22
      0100158AH   LINE      CODE     ---       #23
      0100158DH   LINE      CODE     ---       #24
      0100158DH   LINE      CODE     ---       #25
      0100159BH   LINE      CODE     ---       #26
      010015ACH   LINE      CODE     ---       #27
      010015BDH   LINE      CODE     ---       #28
      010015CEH   LINE      CODE     ---       #29
      010015CEH   LINE      CODE     ---       #30
      010015D3H   LINE      CODE     ---       #31
      010015D3H   LINE      CODE     ---       #32
      010015E4H   LINE      CODE     ---       #33
      010015F3H   LINE      CODE     ---       #34
      01001603H   LINE      CODE     ---       #35
      01001616H   LINE      CODE     ---       #36
      01001616H   LINE      CODE     ---       #37
      0100161BH   LINE      CODE     ---       #38
      0100161BH   LINE      CODE     ---       #39
      0100162CH   LINE      CODE     ---       #40
      0100163BH   LINE      CODE     ---       #41
      0100164BH   LINE      CODE     ---       #42
      0100165EH   LINE      CODE     ---       #43
      0100165EH   LINE      CODE     ---       #44
      01001663H   LINE      CODE     ---       #45
      01001663H   LINE      CODE     ---       #46
      01001674H   LINE      CODE     ---       #47
      01001683H   LINE      CODE     ---       #48
      01001693H   LINE      CODE     ---       #49
      010016A6H   LINE      CODE     ---       #50
      010016A6H   LINE      CODE     ---       #51
      010016ABH   LINE      CODE     ---       #52
      010016ABH   LINE      CODE     ---       #53
      010016BCH   LINE      CODE     ---       #54
      010016CBH   LINE      CODE     ---       #55
      010016DBH   LINE      CODE     ---       #56
      010016EEH   LINE      CODE     ---       #57
      010016EEH   LINE      CODE     ---       #58
      010016F3H   LINE      CODE     ---       #59
      010016F3H   LINE      CODE     ---       #60
      01001704H   LINE      CODE     ---       #61
      01001713H   LINE      CODE     ---       #62
      01001723H   LINE      CODE     ---       #63
      01001736H   LINE      CODE     ---       #64
      01001736H   LINE      CODE     ---       #65
      01001738H   LINE      CODE     ---       #66
      ---         BLOCKEND  ---      ---       LVL=0

      ---         MODULE    ---      ---       TIMER
      01001A8FH   PUBLIC    CODE     ---       _Timer_Inilize
      01003B69H   PUBLIC    CODE     ---       timer2_int
      01000022H   PUBLIC    CODE     ---       timer1_int
      00000080H   SFRSYM    DATA     BYTE      P0
      00000081H   SFRSYM    DATA     BYTE      SP
      00000082H   SFRSYM    DATA     BYTE      DPL
      00000083H   SFRSYM    DATA     BYTE      DPH
      00000084H   SFRSYM    DATA     BYTE      S4CON
      00000085H   SFRSYM    DATA     BYTE      S4BUF
      00000087H   SFRSYM    DATA     BYTE      PCON
      00000088H   SFRSYM    DATA     BYTE      TCON
      00000089H   SFRSYM    DATA     BYTE      TMOD
LX51 LINKER/LOCATER V4.41                                                             11/18/2015  10:20:10  PAGE 98


      0000008AH   SFRSYM    DATA     BYTE      TL0
      0000008BH   SFRSYM    DATA     BYTE      TL1
      0000008CH   SFRSYM    DATA     BYTE      TH0
      0000008DH   SFRSYM    DATA     BYTE      TH1
      0000008EH   SFRSYM    DATA     BYTE      AUXR
      0000008FH   SFRSYM    DATA     BYTE      WAKE_CLKO
      0000008FH   SFRSYM    DATA     BYTE      INT_CLKO
      0000008FH   SFRSYM    DATA     BYTE      AUXR2
      0000008AH   SFRSYM    DATA     BYTE      RL_TL0
      0000008BH   SFRSYM    DATA     BYTE      RL_TL1
      0000008CH   SFRSYM    DATA     BYTE      RL_TH0
      0000008DH   SFRSYM    DATA     BYTE      RL_TH1
      00000090H   SFRSYM    DATA     BYTE      P1
      00000091H   SFRSYM    DATA     BYTE      P1M1
      00000092H   SFRSYM    DATA     BYTE      P1M0
      00000093H   SFRSYM    DATA     BYTE      P0M1
      00000094H   SFRSYM    DATA     BYTE      P0M0
      00000095H   SFRSYM    DATA     BYTE      P2M1
      00000096H   SFRSYM    DATA     BYTE      P2M0
      00000097H   SFRSYM    DATA     BYTE      CLK_DIV
      00000097H   SFRSYM    DATA     BYTE      PCON2
      00000098H   SFRSYM    DATA     BYTE      SCON
      00000099H   SFRSYM    DATA     BYTE      SBUF
      0000009AH   SFRSYM    DATA     BYTE      S2CON
      0000009BH   SFRSYM    DATA     BYTE      S2BUF
      0000009DH   SFRSYM    DATA     BYTE      P1ASF
      000000A0H   SFRSYM    DATA     BYTE      P2
      000000A1H   SFRSYM    DATA     BYTE      BUS_SPEED
      000000A2H   SFRSYM    DATA     BYTE      AUXR1
      000000A2H   SFRSYM    DATA     BYTE      P_SW1
      000000A8H   SFRSYM    DATA     BYTE      IE
      000000A9H   SFRSYM    DATA     BYTE      SADDR
      000000AAH   SFRSYM    DATA     BYTE      WKTCL
      000000ABH   SFRSYM    DATA     BYTE      WKTCH
      000000ACH   SFRSYM    DATA     BYTE      S3CON
      000000ADH   SFRSYM    DATA     BYTE      S3BUF
      000000AFH   SFRSYM    DATA     BYTE      IE2
      000000B0H   SFRSYM    DATA     BYTE      P3
      000000B1H   SFRSYM    DATA     BYTE      P3M1
      000000B2H   SFRSYM    DATA     BYTE      P3M0
      000000B3H   SFRSYM    DATA     BYTE      P4M1
      000000B4H   SFRSYM    DATA     BYTE      P4M0
      000000B5H   SFRSYM    DATA     BYTE      IP2
      000000B6H   SFRSYM    DATA     BYTE      IPH2
      000000B7H   SFRSYM    DATA     BYTE      IPH
      000000B8H   SFRSYM    DATA     BYTE      IP
      000000B9H   SFRSYM    DATA     BYTE      SADEN
      000000BAH   SFRSYM    DATA     BYTE      P_SW2
      000000BCH   SFRSYM    DATA     BYTE      ADC_CONTR
      000000BDH   SFRSYM    DATA     BYTE      ADC_RES
      000000BEH   SFRSYM    DATA     BYTE      ADC_RESL
      000000C0H   SFRSYM    DATA     BYTE      P4
      000000C1H   SFRSYM    DATA     BYTE      WDT_CONTR
      000000C2H   SFRSYM    DATA     BYTE      IAP_DATA
      000000C3H   SFRSYM    DATA     BYTE      IAP_ADDRH
      000000C4H   SFRSYM    DATA     BYTE      IAP_ADDRL
      000000C5H   SFRSYM    DATA     BYTE      IAP_CMD
      000000C6H   SFRSYM    DATA     BYTE      IAP_TRIG
      000000C7H   SFRSYM    DATA     BYTE      IAP_CONTR
      000000C2H   SFRSYM    DATA     BYTE      ISP_DATA
      000000C3H   SFRSYM    DATA     BYTE      ISP_ADDRH
      000000C4H   SFRSYM    DATA     BYTE      ISP_ADDRL
      000000C5H   SFRSYM    DATA     BYTE      ISP_CMD
      000000C6H   SFRSYM    DATA     BYTE      ISP_TRIG
      000000C7H   SFRSYM    DATA     BYTE      ISP_CONTR
LX51 LINKER/LOCATER V4.41                                                             11/18/2015  10:20:10  PAGE 99


      000000C8H   SFRSYM    DATA     BYTE      P5
      000000C9H   SFRSYM    DATA     BYTE      P5M1
      000000CAH   SFRSYM    DATA     BYTE      P5M0
      000000CBH   SFRSYM    DATA     BYTE      P6M1
      000000CCH   SFRSYM    DATA     BYTE      P6M0
      000000CDH   SFRSYM    DATA     BYTE      SPSTAT
      000000CEH   SFRSYM    DATA     BYTE      SPCTL
      000000CFH   SFRSYM    DATA     BYTE      SPDAT
      000000D0H   SFRSYM    DATA     BYTE      PSW
      000000D1H   SFRSYM    DATA     BYTE      T4T3M
      000000D2H   SFRSYM    DATA     BYTE      T4H
      000000D3H   SFRSYM    DATA     BYTE      T4L
      000000D4H   SFRSYM    DATA     BYTE      T3H
      000000D5H   SFRSYM    DATA     BYTE      T3L
      000000D6H   SFRSYM    DATA     BYTE      T2H
      000000D7H   SFRSYM    DATA     BYTE      T2L
      000000D2H   SFRSYM    DATA     BYTE      TH4
      000000D3H   SFRSYM    DATA     BYTE      TL4
      000000D4H   SFRSYM    DATA     BYTE      TH3
      000000D5H   SFRSYM    DATA     BYTE      TL3
      000000D6H   SFRSYM    DATA     BYTE      TH2
      000000D7H   SFRSYM    DATA     BYTE      TL2
      000000D2H   SFRSYM    DATA     BYTE      RL_T4H
      000000D3H   SFRSYM    DATA     BYTE      RL_T4L
      000000D4H   SFRSYM    DATA     BYTE      RL_T3H
      000000D5H   SFRSYM    DATA     BYTE      RL_T3L
      000000D6H   SFRSYM    DATA     BYTE      RL_T2H
      000000D7H   SFRSYM    DATA     BYTE      RL_T2L
      000000D8H   SFRSYM    DATA     BYTE      CCON
      000000D9H   SFRSYM    DATA     BYTE      CMOD
      000000DAH   SFRSYM    DATA     BYTE      CCAPM0
      000000DBH   SFRSYM    DATA     BYTE      CCAPM1
      000000DCH   SFRSYM    DATA     BYTE      CCAPM2
      000000E0H   SFRSYM    DATA     BYTE      ACC
      000000E1H   SFRSYM    DATA     BYTE      P7M1
      000000E2H   SFRSYM    DATA     BYTE      P7M0
      000000E8H   SFRSYM    DATA     BYTE      P6
      000000E9H   SFRSYM    DATA     BYTE      CL
      000000EAH   SFRSYM    DATA     BYTE      CCAP0L
      000000EBH   SFRSYM    DATA     BYTE      CCAP1L
      000000ECH   SFRSYM    DATA     BYTE      CCAP2L
      000000F0H   SFRSYM    DATA     BYTE      B
      000000F2H   SFRSYM    DATA     BYTE      PCA_PWM0
      000000F3H   SFRSYM    DATA     BYTE      PCA_PWM1
      000000F4H   SFRSYM    DATA     BYTE      PCA_PWM2
      000000F8H   SFRSYM    DATA     BYTE      P7
      000000F9H   SFRSYM    DATA     BYTE      CH
      000000FAH   SFRSYM    DATA     BYTE      CCAP0H
      000000FBH   SFRSYM    DATA     BYTE      CCAP1H
      000000FCH   SFRSYM    DATA     BYTE      CCAP2H
      000000D0H.7 SFRSYM    DATA     BIT       CY
      000000D0H.6 SFRSYM    DATA     BIT       AC
      000000D0H.5 SFRSYM    DATA     BIT       F0
      000000D0H.4 SFRSYM    DATA     BIT       RS1
      000000D0H.3 SFRSYM    DATA     BIT       RS0
      000000D0H.2 SFRSYM    DATA     BIT       OV
      000000D0H.1 SFRSYM    DATA     BIT       F1
      000000D0H   SFRSYM    DATA     BIT       P
      00000088H.7 SFRSYM    DATA     BIT       TF1
      00000088H.6 SFRSYM    DATA     BIT       TR1
      00000088H.5 SFRSYM    DATA     BIT       TF0
      00000088H.4 SFRSYM    DATA     BIT       TR0
      00000088H.3 SFRSYM    DATA     BIT       IE1
      00000088H.2 SFRSYM    DATA     BIT       IT1
      00000088H.1 SFRSYM    DATA     BIT       IE0
LX51 LINKER/LOCATER V4.41                                                             11/18/2015  10:20:10  PAGE 100


      00000088H   SFRSYM    DATA     BIT       IT0
      00000080H   SFRSYM    DATA     BIT       P00
      00000080H.1 SFRSYM    DATA     BIT       P01
      00000080H.2 SFRSYM    DATA     BIT       P02
      00000080H.3 SFRSYM    DATA     BIT       P03
      00000080H.4 SFRSYM    DATA     BIT       P04
      00000080H.5 SFRSYM    DATA     BIT       P05
      00000080H.6 SFRSYM    DATA     BIT       P06
      00000080H.7 SFRSYM    DATA     BIT       P07
      00000090H   SFRSYM    DATA     BIT       P10
      00000090H.1 SFRSYM    DATA     BIT       P11
      00000090H.2 SFRSYM    DATA     BIT       P12
      00000090H.3 SFRSYM    DATA     BIT       P13
      00000090H.4 SFRSYM    DATA     BIT       P14
      00000090H.5 SFRSYM    DATA     BIT       P15
      00000090H.6 SFRSYM    DATA     BIT       P16
      00000090H.7 SFRSYM    DATA     BIT       P17
      00000090H   SFRSYM    DATA     BIT       RXD2
      00000090H.1 SFRSYM    DATA     BIT       TXD2
      00000090H   SFRSYM    DATA     BIT       CCP1
      00000090H.1 SFRSYM    DATA     BIT       CCP0
      00000090H.2 SFRSYM    DATA     BIT       SPI_SS
      00000090H.3 SFRSYM    DATA     BIT       SPI_MOSI
      00000090H.4 SFRSYM    DATA     BIT       SPI_MISO
      00000090H.5 SFRSYM    DATA     BIT       SPI_SCLK
      000000A0H.4 SFRSYM    DATA     BIT       SPI_SS_2
      000000A0H.3 SFRSYM    DATA     BIT       SPI_MOSI_2
      000000A0H.2 SFRSYM    DATA     BIT       SPI_MISO_2
      000000A0H.1 SFRSYM    DATA     BIT       SPI_SCLK_2
      000000C8H.4 SFRSYM    DATA     BIT       SPI_SS_3
      000000C0H   SFRSYM    DATA     BIT       SPI_MOSI_3
      000000C0H.1 SFRSYM    DATA     BIT       SPI_MISO_3
      000000C0H.3 SFRSYM    DATA     BIT       SPI_SCLK_3
      000000A0H   SFRSYM    DATA     BIT       P20
      000000A0H.1 SFRSYM    DATA     BIT       P21
      000000A0H.2 SFRSYM    DATA     BIT       P22
      000000A0H.3 SFRSYM    DATA     BIT       P23
      000000A0H.4 SFRSYM    DATA     BIT       P24
      000000A0H.5 SFRSYM    DATA     BIT       P25
      000000A0H.6 SFRSYM    DATA     BIT       P26
      000000A0H.7 SFRSYM    DATA     BIT       P27
      000000B0H   SFRSYM    DATA     BIT       P30
      000000B0H.1 SFRSYM    DATA     BIT       P31
      000000B0H.2 SFRSYM    DATA     BIT       P32
      000000B0H.3 SFRSYM    DATA     BIT       P33
      000000B0H.4 SFRSYM    DATA     BIT       P34
      000000B0H.5 SFRSYM    DATA     BIT       P35
      000000B0H.6 SFRSYM    DATA     BIT       P36
      000000B0H.7 SFRSYM    DATA     BIT       P37
      000000B0H   SFRSYM    DATA     BIT       RXD
      000000B0H.1 SFRSYM    DATA     BIT       TXD
      000000B0H.2 SFRSYM    DATA     BIT       INT0
      000000B0H.3 SFRSYM    DATA     BIT       INT1
      000000B0H.4 SFRSYM    DATA     BIT       T0
      000000B0H.5 SFRSYM    DATA     BIT       T1
      000000B0H.6 SFRSYM    DATA     BIT       WR
      000000B0H.7 SFRSYM    DATA     BIT       RD
      000000B0H.7 SFRSYM    DATA     BIT       CCP2
      000000B0H.5 SFRSYM    DATA     BIT       CLKOUT0
      000000B0H.4 SFRSYM    DATA     BIT       CLKOUT1
      000000C0H   SFRSYM    DATA     BIT       P40
      000000C0H.1 SFRSYM    DATA     BIT       P41
      000000C0H.2 SFRSYM    DATA     BIT       P42
      000000C0H.3 SFRSYM    DATA     BIT       P43
      000000C0H.4 SFRSYM    DATA     BIT       P44
LX51 LINKER/LOCATER V4.41                                                             11/18/2015  10:20:10  PAGE 101


      000000C0H.5 SFRSYM    DATA     BIT       P45
      000000C0H.6 SFRSYM    DATA     BIT       P46
      000000C0H.7 SFRSYM    DATA     BIT       P47
      000000C8H   SFRSYM    DATA     BIT       P50
      000000C8H.1 SFRSYM    DATA     BIT       P51
      000000C8H.2 SFRSYM    DATA     BIT       P52
      000000C8H.3 SFRSYM    DATA     BIT       P53
      000000C8H.4 SFRSYM    DATA     BIT       P54
      000000C8H.5 SFRSYM    DATA     BIT       P55
      000000C8H.6 SFRSYM    DATA     BIT       P56
      000000C8H.7 SFRSYM    DATA     BIT       P57
      00000098H.7 SFRSYM    DATA     BIT       SM0
      00000098H.6 SFRSYM    DATA     BIT       SM1
      00000098H.5 SFRSYM    DATA     BIT       SM2
      00000098H.4 SFRSYM    DATA     BIT       REN
      00000098H.3 SFRSYM    DATA     BIT       TB8
      00000098H.2 SFRSYM    DATA     BIT       RB8
      00000098H.1 SFRSYM    DATA     BIT       TI
      00000098H   SFRSYM    DATA     BIT       RI
      000000A8H.7 SFRSYM    DATA     BIT       EA
      000000A8H.6 SFRSYM    DATA     BIT       ELVD
      000000A8H.5 SFRSYM    DATA     BIT       EADC
      000000A8H.4 SFRSYM    DATA     BIT       ES
      000000A8H.3 SFRSYM    DATA     BIT       ET1
      000000A8H.2 SFRSYM    DATA     BIT       EX1
      000000A8H.1 SFRSYM    DATA     BIT       ET0
      000000A8H   SFRSYM    DATA     BIT       EX0
      000000E0H   SFRSYM    DATA     BIT       ACC0
      000000E0H.1 SFRSYM    DATA     BIT       ACC1
      000000E0H.2 SFRSYM    DATA     BIT       ACC2
      000000E0H.3 SFRSYM    DATA     BIT       ACC3
      000000E0H.4 SFRSYM    DATA     BIT       ACC4
      000000E0H.5 SFRSYM    DATA     BIT       ACC5
      000000E0H.6 SFRSYM    DATA     BIT       ACC6
      000000E0H.7 SFRSYM    DATA     BIT       ACC7
      000000F0H   SFRSYM    DATA     BIT       B0
      000000F0H.1 SFRSYM    DATA     BIT       B1
      000000F0H.2 SFRSYM    DATA     BIT       B2
      000000F0H.3 SFRSYM    DATA     BIT       B3
      000000F0H.4 SFRSYM    DATA     BIT       B4
      000000F0H.5 SFRSYM    DATA     BIT       B5
      000000F0H.6 SFRSYM    DATA     BIT       B6
      000000F0H.7 SFRSYM    DATA     BIT       B7
      000000B8H.7 SFRSYM    DATA     BIT       PPCA
      000000B8H.6 SFRSYM    DATA     BIT       PLVD
      000000B8H.5 SFRSYM    DATA     BIT       PADC
      000000B8H.4 SFRSYM    DATA     BIT       PS
      000000B8H.3 SFRSYM    DATA     BIT       PT1
      000000B8H.2 SFRSYM    DATA     BIT       PX1
      000000B8H.1 SFRSYM    DATA     BIT       PT0
      000000B8H   SFRSYM    DATA     BIT       PX0
      000000D8H   SFRSYM    DATA     BIT       CCF0
      000000D8H.1 SFRSYM    DATA     BIT       CCF1
      000000D8H.2 SFRSYM    DATA     BIT       CCF2
      000000D8H.6 SFRSYM    DATA     BIT       CR
      000000D8H.7 SFRSYM    DATA     BIT       CF

      01000022H   BLOCK     CODE     ---       LVL=0
      01000022H   LINE      CODE     ---       #16
      01000022H   LINE      CODE     ---       #19
      ---         BLOCKEND  ---      ---       LVL=0

      01003B69H   BLOCK     CODE     ---       LVL=0
      01003B69H   LINE      CODE     ---       #22
      01003B69H   LINE      CODE     ---       #24
LX51 LINKER/LOCATER V4.41                                                             11/18/2015  10:20:10  PAGE 102


      01003B6BH   LINE      CODE     ---       #25
      ---         BLOCKEND  ---      ---       LVL=0

      01001A8FH   BLOCK     CODE     ---       LVL=0
      00000005H   SYMBOL    DATA     BYTE      TIM
      00000001H   SYMBOL    DATA     ---       TIMx
      01001A8FH   LINE      CODE     ---       #35
      01001A91H   LINE      CODE     ---       #36
      01001A91H   LINE      CODE     ---       #37
      01001A9AH   LINE      CODE     ---       #39
      01001AA0H   LINE      CODE     ---       #40
      01001AA0H   LINE      CODE     ---       #41
      01001AA2H   LINE      CODE     ---       #42
      01001AAFH   LINE      CODE     ---       #43
      01001AB1H   LINE      CODE     ---       #44
      01001ABEH   LINE      CODE     ---       #45
      01001AC0H   LINE      CODE     ---       #46
      01001ACCH   LINE      CODE     ---       #47
      01001AD3H   LINE      CODE     ---       #48
      01001AE0H   LINE      CODE     ---       #49
      01001AE6H   LINE      CODE     ---       #50
      01001AEFH   LINE      CODE     ---       #51
      01001AF2H   LINE      CODE     ---       #52
      01001B00H   LINE      CODE     ---       #53
      01001B03H   LINE      CODE     ---       #55
      01001B0DH   LINE      CODE     ---       #56
      01001B15H   LINE      CODE     ---       #57
      01001B20H   LINE      CODE     ---       #58
      01001B23H   LINE      CODE     ---       #59
      01001B23H   LINE      CODE     ---       #61
      01001B2BH   LINE      CODE     ---       #62
      01001B2BH   LINE      CODE     ---       #63
      01001B2DH   LINE      CODE     ---       #64
      01001B3AH   LINE      CODE     ---       #65
      01001B3CH   LINE      CODE     ---       #66
      01001B49H   LINE      CODE     ---       #67
      01001B4BH   LINE      CODE     ---       #68
      01001B57H   LINE      CODE     ---       #69
      01001B5EH   LINE      CODE     ---       #70
      01001B6BH   LINE      CODE     ---       #71
      01001B71H   LINE      CODE     ---       #72
      01001B7AH   LINE      CODE     ---       #73
      01001B7DH   LINE      CODE     ---       #74
      01001B8BH   LINE      CODE     ---       #75
      01001B8EH   LINE      CODE     ---       #77
      01001B98H   LINE      CODE     ---       #78
      01001BA0H   LINE      CODE     ---       #79
      01001BABH   LINE      CODE     ---       #80
      01001BAEH   LINE      CODE     ---       #81
      01001BAEH   LINE      CODE     ---       #83
      01001BB3H   LINE      CODE     ---       #84
      01001BB3H   LINE      CODE     ---       #85
      01001BB6H   LINE      CODE     ---       #86
      01001BC4H   LINE      CODE     ---       #87
      01001BC7H   LINE      CODE     ---       #88
      01001BD6H   LINE      CODE     ---       #89
      01001BDDH   LINE      CODE     ---       #90
      01001BE8H   LINE      CODE     ---       #91
      01001BF6H   LINE      CODE     ---       #92
      01001BF9H   LINE      CODE     ---       #93
      01001C07H   LINE      CODE     ---       #94
      01001C0AH   LINE      CODE     ---       #96
      01001C16H   LINE      CODE     ---       #97
      01001C18H   LINE      CODE     ---       #98
      01001C24H   LINE      CODE     ---       #99
LX51 LINKER/LOCATER V4.41                                                             11/18/2015  10:20:10  PAGE 103


      01001C27H   LINE      CODE     ---       #100
      01001C27H   LINE      CODE     ---       #101
      01001C29H   LINE      CODE     ---       #102
      ---         BLOCKEND  ---      ---       LVL=0

      ---         MODULE    ---      ---       USART
      0200020FH   PUBLIC    XDATA    BYTE      uart2_tim_enable_flag
      0200020EH   PUBLIC    XDATA    BYTE      uart1_tim_enable_flag
      0200018EH   PUBLIC    XDATA    ---       RX2_Buffer
      0200010EH   PUBLIC    XDATA    ---       TX2_Buffer
      0200008EH   PUBLIC    XDATA    ---       RX1_Buffer
      0200000EH   PUBLIC    XDATA    ---       TX1_Buffer
      02000007H   PUBLIC    XDATA    ---       COM2
      02000000H   PUBLIC    XDATA    ---       COM1
      010028E2H   PUBLIC    CODE     ---       UART2_int
      010029ACH   PUBLIC    CODE     ---       UART1_int
      0100207DH   PUBLIC    CODE     ---       _uart2_rx_data
      01003638H   PUBLIC    CODE     ---       _uart2_tx_data
      01001DBFH   PUBLIC    CODE     ---       _uart1_rx_data
      0100393EH   PUBLIC    CODE     ---       _uart1_tx_data
      01003B23H   PUBLIC    CODE     ---       _PrintString2
      01003B10H   PUBLIC    CODE     ---       _PrintString1
      010039BFH   PUBLIC    CODE     ---       _TX2_write2buff
      010039E7H   PUBLIC    CODE     ---       _TX1_write2buff
      01000821H   PUBLIC    CODE     ---       _USART_Configuration
      00000080H   SFRSYM    DATA     BYTE      P0
      00000081H   SFRSYM    DATA     BYTE      SP
      00000082H   SFRSYM    DATA     BYTE      DPL
      00000083H   SFRSYM    DATA     BYTE      DPH
      00000084H   SFRSYM    DATA     BYTE      S4CON
      00000085H   SFRSYM    DATA     BYTE      S4BUF
      00000087H   SFRSYM    DATA     BYTE      PCON
      00000088H   SFRSYM    DATA     BYTE      TCON
      00000089H   SFRSYM    DATA     BYTE      TMOD
      0000008AH   SFRSYM    DATA     BYTE      TL0
      0000008BH   SFRSYM    DATA     BYTE      TL1
      0000008CH   SFRSYM    DATA     BYTE      TH0
      0000008DH   SFRSYM    DATA     BYTE      TH1
      0000008EH   SFRSYM    DATA     BYTE      AUXR
      0000008FH   SFRSYM    DATA     BYTE      WAKE_CLKO
      0000008FH   SFRSYM    DATA     BYTE      INT_CLKO
      0000008FH   SFRSYM    DATA     BYTE      AUXR2
      0000008AH   SFRSYM    DATA     BYTE      RL_TL0
      0000008BH   SFRSYM    DATA     BYTE      RL_TL1
      0000008CH   SFRSYM    DATA     BYTE      RL_TH0
      0000008DH   SFRSYM    DATA     BYTE      RL_TH1
      00000090H   SFRSYM    DATA     BYTE      P1
      00000091H   SFRSYM    DATA     BYTE      P1M1
      00000092H   SFRSYM    DATA     BYTE      P1M0
      00000093H   SFRSYM    DATA     BYTE      P0M1
      00000094H   SFRSYM    DATA     BYTE      P0M0
      00000095H   SFRSYM    DATA     BYTE      P2M1
      00000096H   SFRSYM    DATA     BYTE      P2M0
      00000097H   SFRSYM    DATA     BYTE      CLK_DIV
      00000097H   SFRSYM    DATA     BYTE      PCON2
      00000098H   SFRSYM    DATA     BYTE      SCON
      00000099H   SFRSYM    DATA     BYTE      SBUF
      0000009AH   SFRSYM    DATA     BYTE      S2CON
      0000009BH   SFRSYM    DATA     BYTE      S2BUF
      0000009DH   SFRSYM    DATA     BYTE      P1ASF
      000000A0H   SFRSYM    DATA     BYTE      P2
      000000A1H   SFRSYM    DATA     BYTE      BUS_SPEED
      000000A2H   SFRSYM    DATA     BYTE      AUXR1
      000000A2H   SFRSYM    DATA     BYTE      P_SW1
      000000A8H   SFRSYM    DATA     BYTE      IE
LX51 LINKER/LOCATER V4.41                                                             11/18/2015  10:20:10  PAGE 104


      000000A9H   SFRSYM    DATA     BYTE      SADDR
      000000AAH   SFRSYM    DATA     BYTE      WKTCL
      000000ABH   SFRSYM    DATA     BYTE      WKTCH
      000000ACH   SFRSYM    DATA     BYTE      S3CON
      000000ADH   SFRSYM    DATA     BYTE      S3BUF
      000000AFH   SFRSYM    DATA     BYTE      IE2
      000000B0H   SFRSYM    DATA     BYTE      P3
      000000B1H   SFRSYM    DATA     BYTE      P3M1
      000000B2H   SFRSYM    DATA     BYTE      P3M0
      000000B3H   SFRSYM    DATA     BYTE      P4M1
      000000B4H   SFRSYM    DATA     BYTE      P4M0
      000000B5H   SFRSYM    DATA     BYTE      IP2
      000000B6H   SFRSYM    DATA     BYTE      IPH2
      000000B7H   SFRSYM    DATA     BYTE      IPH
      000000B8H   SFRSYM    DATA     BYTE      IP
      000000B9H   SFRSYM    DATA     BYTE      SADEN
      000000BAH   SFRSYM    DATA     BYTE      P_SW2
      000000BCH   SFRSYM    DATA     BYTE      ADC_CONTR
      000000BDH   SFRSYM    DATA     BYTE      ADC_RES
      000000BEH   SFRSYM    DATA     BYTE      ADC_RESL
      000000C0H   SFRSYM    DATA     BYTE      P4
      000000C1H   SFRSYM    DATA     BYTE      WDT_CONTR
      000000C2H   SFRSYM    DATA     BYTE      IAP_DATA
      000000C3H   SFRSYM    DATA     BYTE      IAP_ADDRH
      000000C4H   SFRSYM    DATA     BYTE      IAP_ADDRL
      000000C5H   SFRSYM    DATA     BYTE      IAP_CMD
      000000C6H   SFRSYM    DATA     BYTE      IAP_TRIG
      000000C7H   SFRSYM    DATA     BYTE      IAP_CONTR
      000000C2H   SFRSYM    DATA     BYTE      ISP_DATA
      000000C3H   SFRSYM    DATA     BYTE      ISP_ADDRH
      000000C4H   SFRSYM    DATA     BYTE      ISP_ADDRL
      000000C5H   SFRSYM    DATA     BYTE      ISP_CMD
      000000C6H   SFRSYM    DATA     BYTE      ISP_TRIG
      000000C7H   SFRSYM    DATA     BYTE      ISP_CONTR
      000000C8H   SFRSYM    DATA     BYTE      P5
      000000C9H   SFRSYM    DATA     BYTE      P5M1
      000000CAH   SFRSYM    DATA     BYTE      P5M0
      000000CBH   SFRSYM    DATA     BYTE      P6M1
      000000CCH   SFRSYM    DATA     BYTE      P6M0
      000000CDH   SFRSYM    DATA     BYTE      SPSTAT
      000000CEH   SFRSYM    DATA     BYTE      SPCTL
      000000CFH   SFRSYM    DATA     BYTE      SPDAT
      000000D0H   SFRSYM    DATA     BYTE      PSW
      000000D1H   SFRSYM    DATA     BYTE      T4T3M
      000000D2H   SFRSYM    DATA     BYTE      T4H
      000000D3H   SFRSYM    DATA     BYTE      T4L
      000000D4H   SFRSYM    DATA     BYTE      T3H
      000000D5H   SFRSYM    DATA     BYTE      T3L
      000000D6H   SFRSYM    DATA     BYTE      T2H
      000000D7H   SFRSYM    DATA     BYTE      T2L
      000000D2H   SFRSYM    DATA     BYTE      TH4
      000000D3H   SFRSYM    DATA     BYTE      TL4
      000000D4H   SFRSYM    DATA     BYTE      TH3
      000000D5H   SFRSYM    DATA     BYTE      TL3
      000000D6H   SFRSYM    DATA     BYTE      TH2
      000000D7H   SFRSYM    DATA     BYTE      TL2
      000000D2H   SFRSYM    DATA     BYTE      RL_T4H
      000000D3H   SFRSYM    DATA     BYTE      RL_T4L
      000000D4H   SFRSYM    DATA     BYTE      RL_T3H
      000000D5H   SFRSYM    DATA     BYTE      RL_T3L
      000000D6H   SFRSYM    DATA     BYTE      RL_T2H
      000000D7H   SFRSYM    DATA     BYTE      RL_T2L
      000000D8H   SFRSYM    DATA     BYTE      CCON
      000000D9H   SFRSYM    DATA     BYTE      CMOD
      000000DAH   SFRSYM    DATA     BYTE      CCAPM0
LX51 LINKER/LOCATER V4.41                                                             11/18/2015  10:20:10  PAGE 105


      000000DBH   SFRSYM    DATA     BYTE      CCAPM1
      000000DCH   SFRSYM    DATA     BYTE      CCAPM2
      000000E0H   SFRSYM    DATA     BYTE      ACC
      000000E1H   SFRSYM    DATA     BYTE      P7M1
      000000E2H   SFRSYM    DATA     BYTE      P7M0
      000000E8H   SFRSYM    DATA     BYTE      P6
      000000E9H   SFRSYM    DATA     BYTE      CL
      000000EAH   SFRSYM    DATA     BYTE      CCAP0L
      000000EBH   SFRSYM    DATA     BYTE      CCAP1L
      000000ECH   SFRSYM    DATA     BYTE      CCAP2L
      000000F0H   SFRSYM    DATA     BYTE      B
      000000F2H   SFRSYM    DATA     BYTE      PCA_PWM0
      000000F3H   SFRSYM    DATA     BYTE      PCA_PWM1
      000000F4H   SFRSYM    DATA     BYTE      PCA_PWM2
      000000F8H   SFRSYM    DATA     BYTE      P7
      000000F9H   SFRSYM    DATA     BYTE      CH
      000000FAH   SFRSYM    DATA     BYTE      CCAP0H
      000000FBH   SFRSYM    DATA     BYTE      CCAP1H
      000000FCH   SFRSYM    DATA     BYTE      CCAP2H
      000000D0H.7 SFRSYM    DATA     BIT       CY
      000000D0H.6 SFRSYM    DATA     BIT       AC
      000000D0H.5 SFRSYM    DATA     BIT       F0
      000000D0H.4 SFRSYM    DATA     BIT       RS1
      000000D0H.3 SFRSYM    DATA     BIT       RS0
      000000D0H.2 SFRSYM    DATA     BIT       OV
      000000D0H.1 SFRSYM    DATA     BIT       F1
      000000D0H   SFRSYM    DATA     BIT       P
      00000088H.7 SFRSYM    DATA     BIT       TF1
      00000088H.6 SFRSYM    DATA     BIT       TR1
      00000088H.5 SFRSYM    DATA     BIT       TF0
      00000088H.4 SFRSYM    DATA     BIT       TR0
      00000088H.3 SFRSYM    DATA     BIT       IE1
      00000088H.2 SFRSYM    DATA     BIT       IT1
      00000088H.1 SFRSYM    DATA     BIT       IE0
      00000088H   SFRSYM    DATA     BIT       IT0
      00000080H   SFRSYM    DATA     BIT       P00
      00000080H.1 SFRSYM    DATA     BIT       P01
      00000080H.2 SFRSYM    DATA     BIT       P02
      00000080H.3 SFRSYM    DATA     BIT       P03
      00000080H.4 SFRSYM    DATA     BIT       P04
      00000080H.5 SFRSYM    DATA     BIT       P05
      00000080H.6 SFRSYM    DATA     BIT       P06
      00000080H.7 SFRSYM    DATA     BIT       P07
      00000090H   SFRSYM    DATA     BIT       P10
      00000090H.1 SFRSYM    DATA     BIT       P11
      00000090H.2 SFRSYM    DATA     BIT       P12
      00000090H.3 SFRSYM    DATA     BIT       P13
      00000090H.4 SFRSYM    DATA     BIT       P14
      00000090H.5 SFRSYM    DATA     BIT       P15
      00000090H.6 SFRSYM    DATA     BIT       P16
      00000090H.7 SFRSYM    DATA     BIT       P17
      00000090H   SFRSYM    DATA     BIT       RXD2
      00000090H.1 SFRSYM    DATA     BIT       TXD2
      00000090H   SFRSYM    DATA     BIT       CCP1
      00000090H.1 SFRSYM    DATA     BIT       CCP0
      00000090H.2 SFRSYM    DATA     BIT       SPI_SS
      00000090H.3 SFRSYM    DATA     BIT       SPI_MOSI
      00000090H.4 SFRSYM    DATA     BIT       SPI_MISO
      00000090H.5 SFRSYM    DATA     BIT       SPI_SCLK
      000000A0H.4 SFRSYM    DATA     BIT       SPI_SS_2
      000000A0H.3 SFRSYM    DATA     BIT       SPI_MOSI_2
      000000A0H.2 SFRSYM    DATA     BIT       SPI_MISO_2
      000000A0H.1 SFRSYM    DATA     BIT       SPI_SCLK_2
      000000C8H.4 SFRSYM    DATA     BIT       SPI_SS_3
      000000C0H   SFRSYM    DATA     BIT       SPI_MOSI_3
LX51 LINKER/LOCATER V4.41                                                             11/18/2015  10:20:10  PAGE 106


      000000C0H.1 SFRSYM    DATA     BIT       SPI_MISO_3
      000000C0H.3 SFRSYM    DATA     BIT       SPI_SCLK_3
      000000A0H   SFRSYM    DATA     BIT       P20
      000000A0H.1 SFRSYM    DATA     BIT       P21
      000000A0H.2 SFRSYM    DATA     BIT       P22
      000000A0H.3 SFRSYM    DATA     BIT       P23
      000000A0H.4 SFRSYM    DATA     BIT       P24
      000000A0H.5 SFRSYM    DATA     BIT       P25
      000000A0H.6 SFRSYM    DATA     BIT       P26
      000000A0H.7 SFRSYM    DATA     BIT       P27
      000000B0H   SFRSYM    DATA     BIT       P30
      000000B0H.1 SFRSYM    DATA     BIT       P31
      000000B0H.2 SFRSYM    DATA     BIT       P32
      000000B0H.3 SFRSYM    DATA     BIT       P33
      000000B0H.4 SFRSYM    DATA     BIT       P34
      000000B0H.5 SFRSYM    DATA     BIT       P35
      000000B0H.6 SFRSYM    DATA     BIT       P36
      000000B0H.7 SFRSYM    DATA     BIT       P37
      000000B0H   SFRSYM    DATA     BIT       RXD
      000000B0H.1 SFRSYM    DATA     BIT       TXD
      000000B0H.2 SFRSYM    DATA     BIT       INT0
      000000B0H.3 SFRSYM    DATA     BIT       INT1
      000000B0H.4 SFRSYM    DATA     BIT       T0
      000000B0H.5 SFRSYM    DATA     BIT       T1
      000000B0H.6 SFRSYM    DATA     BIT       WR
      000000B0H.7 SFRSYM    DATA     BIT       RD
      000000B0H.7 SFRSYM    DATA     BIT       CCP2
      000000B0H.5 SFRSYM    DATA     BIT       CLKOUT0
      000000B0H.4 SFRSYM    DATA     BIT       CLKOUT1
      000000C0H   SFRSYM    DATA     BIT       P40
      000000C0H.1 SFRSYM    DATA     BIT       P41
      000000C0H.2 SFRSYM    DATA     BIT       P42
      000000C0H.3 SFRSYM    DATA     BIT       P43
      000000C0H.4 SFRSYM    DATA     BIT       P44
      000000C0H.5 SFRSYM    DATA     BIT       P45
      000000C0H.6 SFRSYM    DATA     BIT       P46
      000000C0H.7 SFRSYM    DATA     BIT       P47
      000000C8H   SFRSYM    DATA     BIT       P50
      000000C8H.1 SFRSYM    DATA     BIT       P51
      000000C8H.2 SFRSYM    DATA     BIT       P52
      000000C8H.3 SFRSYM    DATA     BIT       P53
      000000C8H.4 SFRSYM    DATA     BIT       P54
      000000C8H.5 SFRSYM    DATA     BIT       P55
      000000C8H.6 SFRSYM    DATA     BIT       P56
      000000C8H.7 SFRSYM    DATA     BIT       P57
      00000098H.7 SFRSYM    DATA     BIT       SM0
      00000098H.6 SFRSYM    DATA     BIT       SM1
      00000098H.5 SFRSYM    DATA     BIT       SM2
      00000098H.4 SFRSYM    DATA     BIT       REN
      00000098H.3 SFRSYM    DATA     BIT       TB8
      00000098H.2 SFRSYM    DATA     BIT       RB8
      00000098H.1 SFRSYM    DATA     BIT       TI
      00000098H   SFRSYM    DATA     BIT       RI
      000000A8H.7 SFRSYM    DATA     BIT       EA
      000000A8H.6 SFRSYM    DATA     BIT       ELVD
      000000A8H.5 SFRSYM    DATA     BIT       EADC
      000000A8H.4 SFRSYM    DATA     BIT       ES
      000000A8H.3 SFRSYM    DATA     BIT       ET1
      000000A8H.2 SFRSYM    DATA     BIT       EX1
      000000A8H.1 SFRSYM    DATA     BIT       ET0
      000000A8H   SFRSYM    DATA     BIT       EX0
      000000E0H   SFRSYM    DATA     BIT       ACC0
      000000E0H.1 SFRSYM    DATA     BIT       ACC1
      000000E0H.2 SFRSYM    DATA     BIT       ACC2
      000000E0H.3 SFRSYM    DATA     BIT       ACC3
LX51 LINKER/LOCATER V4.41                                                             11/18/2015  10:20:10  PAGE 107


      000000E0H.4 SFRSYM    DATA     BIT       ACC4
      000000E0H.5 SFRSYM    DATA     BIT       ACC5
      000000E0H.6 SFRSYM    DATA     BIT       ACC6
      000000E0H.7 SFRSYM    DATA     BIT       ACC7
      000000F0H   SFRSYM    DATA     BIT       B0
      000000F0H.1 SFRSYM    DATA     BIT       B1
      000000F0H.2 SFRSYM    DATA     BIT       B2
      000000F0H.3 SFRSYM    DATA     BIT       B3
      000000F0H.4 SFRSYM    DATA     BIT       B4
      000000F0H.5 SFRSYM    DATA     BIT       B5
      000000F0H.6 SFRSYM    DATA     BIT       B6
      000000F0H.7 SFRSYM    DATA     BIT       B7
      000000B8H.7 SFRSYM    DATA     BIT       PPCA
      000000B8H.6 SFRSYM    DATA     BIT       PLVD
      000000B8H.5 SFRSYM    DATA     BIT       PADC
      000000B8H.4 SFRSYM    DATA     BIT       PS
      000000B8H.3 SFRSYM    DATA     BIT       PT1
      000000B8H.2 SFRSYM    DATA     BIT       PX1
      000000B8H.1 SFRSYM    DATA     BIT       PT0
      000000B8H   SFRSYM    DATA     BIT       PX0
      000000D8H   SFRSYM    DATA     BIT       CCF0
      000000D8H.1 SFRSYM    DATA     BIT       CCF1
      000000D8H.2 SFRSYM    DATA     BIT       CCF2
      000000D8H.6 SFRSYM    DATA     BIT       CR
      000000D8H.7 SFRSYM    DATA     BIT       CF
      01003BE2H   SYMBOL    CONST    ---       _?ix1000
      01003C14H   SYMBOL    CONST    ---       _?ix1001

      01000821H   BLOCK     CODE     ---       LVL=0
      02000230H   SYMBOL    XDATA    BYTE      UARTx
      02000231H   SYMBOL    XDATA    ---       COMx
      01000831H   BLOCK     CODE     NEAR LAB  LVL=1
      02000234H   SYMBOL    XDATA    BYTE      i
      02000235H   SYMBOL    XDATA    DWORD     j
      ---         BLOCKEND  ---      ---       LVL=1
      01000821H   LINE      CODE     ---       #19
      01000831H   LINE      CODE     ---       #20
      01000831H   LINE      CODE     ---       #24
      01000838H   LINE      CODE     ---       #25
      01000838H   LINE      CODE     ---       #26
      0100083DH   LINE      CODE     ---       #27
      01000840H   LINE      CODE     ---       #28
      01000842H   LINE      CODE     ---       #29
      01000844H   LINE      CODE     ---       #30
      01000846H   LINE      CODE     ---       #31
      01000848H   LINE      CODE     ---       #32
      0100084AH   LINE      CODE     ---       #33
      0100086CH   LINE      CODE     ---       #34
      0100088FH   LINE      CODE     ---       #36
      010008A5H   LINE      CODE     ---       #37
      010008B2H   LINE      CODE     ---       #38
      010008B4H   LINE      CODE     ---       #39
      010008BFH   LINE      CODE     ---       #40
      010008CCH   LINE      CODE     ---       #41
      010008CCH   LINE      CODE     ---       #42
      010008E3H   LINE      CODE     ---       #43
      01000900H   LINE      CODE     ---       #44
      01000922H   LINE      CODE     ---       #45
      01000938H   LINE      CODE     ---       #46
      01000938H   LINE      CODE     ---       #47
      0100093AH   LINE      CODE     ---       #48
      0100093DH   LINE      CODE     ---       #49
      01000940H   LINE      CODE     ---       #50
      01000943H   LINE      CODE     ---       #51
      01000946H   LINE      CODE     ---       #52
LX51 LINKER/LOCATER V4.41                                                             11/18/2015  10:20:10  PAGE 108


      0100095BH   LINE      CODE     ---       #53
      01000964H   LINE      CODE     ---       #54
      01000966H   LINE      CODE     ---       #55
      01000969H   LINE      CODE     ---       #56
      0100096CH   LINE      CODE     ---       #57
      0100096EH   LINE      CODE     ---       #58
      01000970H   LINE      CODE     ---       #59
      01000975H   LINE      CODE     ---       #60
      01000975H   LINE      CODE     ---       #61
      01000978H   LINE      CODE     ---       #62
      0100097BH   LINE      CODE     ---       #63
      0100097EH   LINE      CODE     ---       #64
      01000981H   LINE      CODE     ---       #65
      01000996H   LINE      CODE     ---       #66
      0100099FH   LINE      CODE     ---       #67
      010009A2H   LINE      CODE     ---       #68
      010009A5H   LINE      CODE     ---       #69
      010009A8H   LINE      CODE     ---       #70
      010009AAH   LINE      CODE     ---       #71
      010009ADH   LINE      CODE     ---       #72
      010009ADH   LINE      CODE     ---       #73
      010009BEH   LINE      CODE     ---       #74
      010009BEH   LINE      CODE     ---       #75
      010009CCH   LINE      CODE     ---       #76
      010009CFH   LINE      CODE     ---       #77
      010009D1H   LINE      CODE     ---       #78
      010009D5H   LINE      CODE     ---       #79
      010009D5H   LINE      CODE     ---       #80
      010009E3H   LINE      CODE     ---       #81
      010009E6H   LINE      CODE     ---       #82
      010009E6H   LINE      CODE     ---       #83
      010009FEH   LINE      CODE     ---       #84
      01000A00H   LINE      CODE     ---       #85
      01000A0DH   LINE      CODE     ---       #86
      01000A0FH   LINE      CODE     ---       #87
      01000A1FH   LINE      CODE     ---       #88
      01000A2DH   LINE      CODE     ---       #89
      01000A30H   LINE      CODE     ---       #90
      01000A33H   LINE      CODE     ---       #91
      01000A33H   LINE      CODE     ---       #93
      01000A3EH   LINE      CODE     ---       #94
      01000A3EH   LINE      CODE     ---       #95
      01000A44H   LINE      CODE     ---       #96
      01000A47H   LINE      CODE     ---       #97
      01000A49H   LINE      CODE     ---       #98
      01000A4BH   LINE      CODE     ---       #99
      01000A4DH   LINE      CODE     ---       #100
      01000A4FH   LINE      CODE     ---       #101
      01000A51H   LINE      CODE     ---       #102
      01000A73H   LINE      CODE     ---       #103
      01000A96H   LINE      CODE     ---       #105
      01000AB1H   LINE      CODE     ---       #106
      01000AB1H   LINE      CODE     ---       #107
      01000ABFH   LINE      CODE     ---       #108
      01000AC2H   LINE      CODE     ---       #109
      01000ACDH   LINE      CODE     ---       #110
      01000AD0H   LINE      CODE     ---       #111
      01000AE7H   LINE      CODE     ---       #112
      01000B04H   LINE      CODE     ---       #113
      01000B26H   LINE      CODE     ---       #114
      01000B29H   LINE      CODE     ---       #115
      01000B2CH   LINE      CODE     ---       #116
      01000B2FH   LINE      CODE     ---       #117
      01000B44H   LINE      CODE     ---       #118
      01000B4DH   LINE      CODE     ---       #119
LX51 LINKER/LOCATER V4.41                                                             11/18/2015  10:20:10  PAGE 109


      01000B50H   LINE      CODE     ---       #120
      01000B53H   LINE      CODE     ---       #121
      01000B55H   LINE      CODE     ---       #122
      01000B58H   LINE      CODE     ---       #123
      01000B71H   LINE      CODE     ---       #124
      01000B74H   LINE      CODE     ---       #125
      01000B82H   LINE      CODE     ---       #126
      01000B85H   LINE      CODE     ---       #127
      01000B95H   LINE      CODE     ---       #128
      01000B95H   LINE      CODE     ---       #129
      ---         BLOCKEND  ---      ---       LVL=0

      010039E7H   BLOCK     CODE     ---       LVL=0
      00000007H   SYMBOL    DATA     BYTE      dat
      010039E7H   LINE      CODE     ---       #134
      010039E7H   LINE      CODE     ---       #135
      010039E7H   LINE      CODE     ---       #136
      010039F6H   LINE      CODE     ---       #137
      01003A01H   LINE      CODE     ---       #138
      01003A01H   LINE      CODE     ---       #139
      01003A03H   LINE      CODE     ---       #140
      01003A03H   LINE      CODE     ---       #141
      01003A09H   LINE      CODE     ---       #142
      01003A09H   LINE      CODE     ---       #143
      01003A0BH   LINE      CODE     ---       #144
      01003A0DH   LINE      CODE     ---       #145
      01003A0DH   LINE      CODE     ---       #146
      ---         BLOCKEND  ---      ---       LVL=0

      010039BFH   BLOCK     CODE     ---       LVL=0
      00000007H   SYMBOL    DATA     BYTE      dat
      010039BFH   LINE      CODE     ---       #148
      010039BFH   LINE      CODE     ---       #149
      010039BFH   LINE      CODE     ---       #150
      010039CEH   LINE      CODE     ---       #151
      010039DBH   LINE      CODE     ---       #153
      010039E1H   LINE      CODE     ---       #154
      010039E1H   LINE      CODE     ---       #155
      010039E3H   LINE      CODE     ---       #156
      010039E6H   LINE      CODE     ---       #157
      010039E6H   LINE      CODE     ---       #158
      ---         BLOCKEND  ---      ---       LVL=0

      01003B10H   BLOCK     CODE     ---       LVL=0
      00000001H   SYMBOL    DATA     ---       puts
      01003B10H   LINE      CODE     ---       #160
      01003B10H   LINE      CODE     ---       #161
      01003B10H   LINE      CODE     ---       #162
      01003B22H   LINE      CODE     ---       #163
      ---         BLOCKEND  ---      ---       LVL=0

      01003B23H   BLOCK     CODE     ---       LVL=0
      00000001H   SYMBOL    DATA     ---       puts
      01003B23H   LINE      CODE     ---       #165
      01003B23H   LINE      CODE     ---       #166
      01003B23H   LINE      CODE     ---       #167
      01003B35H   LINE      CODE     ---       #168
      ---         BLOCKEND  ---      ---       LVL=0

      0100393EH   BLOCK     CODE     ---       LVL=0
      020005AFH   SYMBOL    XDATA    ---       tx_data
      00000005H   SYMBOL    DATA     BYTE      len
      01003949H   BLOCK     CODE     NEAR LAB  LVL=1
      00000006H   SYMBOL    DATA     BYTE      i
      ---         BLOCKEND  ---      ---       LVL=1
LX51 LINKER/LOCATER V4.41                                                             11/18/2015  10:20:10  PAGE 110


      0100393EH   LINE      CODE     ---       #171
      01003949H   LINE      CODE     ---       #172
      01003949H   LINE      CODE     ---       #173
      0100394BH   LINE      CODE     ---       #174
      01003950H   LINE      CODE     ---       #175
      01003950H   LINE      CODE     ---       #176
      01003967H   LINE      CODE     ---       #177
      0100396AH   LINE      CODE     ---       #178
      ---         BLOCKEND  ---      ---       LVL=0

      01001DBFH   BLOCK     CODE     ---       LVL=0
      0200038AH   SYMBOL    XDATA    ---       rx_data
      01001DCAH   BLOCK     CODE     NEAR LAB  LVL=1
      0200038DH   SYMBOL    XDATA    ---       f
      020003CCH   SYMBOL    XDATA    WORD      len
      020003CEH   SYMBOL    XDATA    WORD      i
      020003D0H   SYMBOL    XDATA    ---       tmp
      02000402H   SYMBOL    XDATA    BYTE      start_field
      02000403H   SYMBOL    XDATA    BYTE      end_field
      02000404H   SYMBOL    XDATA    BYTE      crc_field
      02000405H   SYMBOL    XDATA    BYTE      crc
      ---         BLOCKEND  ---      ---       LVL=1
      01001DBFH   LINE      CODE     ---       #181
      01001DCAH   LINE      CODE     ---       #182
      01001DCAH   LINE      CODE     ---       #184
      01001DD5H   LINE      CODE     ---       #185
      01001DF2H   LINE      CODE     ---       #187
      01001DFDH   LINE      CODE     ---       #188
      01001DFDH   LINE      CODE     ---       #189
      01001E3AH   LINE      CODE     ---       #190
      01001E3AH   LINE      CODE     ---       #191
      01001E42H   LINE      CODE     ---       #192
      01001E56H   LINE      CODE     ---       #193
      01001E77H   LINE      CODE     ---       #194
      01001E77H   LINE      CODE     ---       #195
      01001E91H   LINE      CODE     ---       #196
      01001EA1H   LINE      CODE     ---       #198
      01001EB6H   LINE      CODE     ---       #199
      01001EC5H   LINE      CODE     ---       #200
      01001ED7H   LINE      CODE     ---       #202
      01001EEFH   LINE      CODE     ---       #203
      01001EEFH   LINE      CODE     ---       #204
      01001F0BH   LINE      CODE     ---       #205
      01001F0BH   LINE      CODE     ---       #207
      01001F10H   LINE      CODE     ---       #208
      01001F14H   LINE      CODE     ---       #209
      01001F21H   LINE      CODE     ---       #210
      01001F21H   LINE      CODE     ---       #211
      01001F21H   LINE      CODE     ---       #212
      ---         BLOCKEND  ---      ---       LVL=0

      01003638H   BLOCK     CODE     ---       LVL=0
      02000309H   SYMBOL    XDATA    ---       tx_data
      0200030CH   SYMBOL    XDATA    BYTE      len
      01003646H   BLOCK     CODE     NEAR LAB  LVL=1
      00000006H   SYMBOL    DATA     BYTE      i
      ---         BLOCKEND  ---      ---       LVL=1
      01003638H   LINE      CODE     ---       #215
      01003646H   LINE      CODE     ---       #216
      01003646H   LINE      CODE     ---       #217
      01003648H   LINE      CODE     ---       #218
      0100364FH   LINE      CODE     ---       #219
      0100365BH   LINE      CODE     ---       #220
      0100365BH   LINE      CODE     ---       #221
      01003672H   LINE      CODE     ---       #222
LX51 LINKER/LOCATER V4.41                                                             11/18/2015  10:20:10  PAGE 111


      01003675H   LINE      CODE     ---       #223
      01003680H   LINE      CODE     ---       #224
      ---         BLOCKEND  ---      ---       LVL=0

      0100207DH   BLOCK     CODE     ---       LVL=0
      02000309H   SYMBOL    XDATA    ---       rx_data
      01002088H   BLOCK     CODE     NEAR LAB  LVL=1
      0200030CH   SYMBOL    XDATA    ---       f
      0200034BH   SYMBOL    XDATA    WORD      len
      0200034DH   SYMBOL    XDATA    WORD      i
      0200034FH   SYMBOL    XDATA    ---       tmp
      02000381H   SYMBOL    XDATA    BYTE      start_field
      02000382H   SYMBOL    XDATA    BYTE      end_field
      02000383H   SYMBOL    XDATA    BYTE      crc_field
      02000384H   SYMBOL    XDATA    BYTE      crc
      ---         BLOCKEND  ---      ---       LVL=1
      0100207DH   LINE      CODE     ---       #229
      01002088H   LINE      CODE     ---       #230
      01002088H   LINE      CODE     ---       #232
      01002093H   LINE      CODE     ---       #233
      010020B0H   LINE      CODE     ---       #235
      010020BBH   LINE      CODE     ---       #236
      010020BBH   LINE      CODE     ---       #237
      010020F8H   LINE      CODE     ---       #238
      010020F8H   LINE      CODE     ---       #240
      01002100H   LINE      CODE     ---       #241
      01002114H   LINE      CODE     ---       #243
      0100212DH   LINE      CODE     ---       #244
      0100212DH   LINE      CODE     ---       #245
      01002147H   LINE      CODE     ---       #246
      01002157H   LINE      CODE     ---       #248
      0100216BH   LINE      CODE     ---       #249
      0100217AH   LINE      CODE     ---       #250
      01002188H   LINE      CODE     ---       #252
      010021A2H   LINE      CODE     ---       #253
      010021A2H   LINE      CODE     ---       #254
      010021BEH   LINE      CODE     ---       #255
      010021BEH   LINE      CODE     ---       #257
      010021C3H   LINE      CODE     ---       #258
      010021C7H   LINE      CODE     ---       #259
      010021D4H   LINE      CODE     ---       #260
      010021D4H   LINE      CODE     ---       #261
      010021D4H   LINE      CODE     ---       #262
      ---         BLOCKEND  ---      ---       LVL=0

      010029ACH   BLOCK     CODE     ---       LVL=0
      010029ACH   LINE      CODE     ---       #268
      010029C9H   LINE      CODE     ---       #271
      010029CCH   LINE      CODE     ---       #272
      010029CCH   LINE      CODE     ---       #273
      010029CEH   LINE      CODE     ---       #274
      010029D4H   LINE      CODE     ---       #275
      010029D4H   LINE      CODE     ---       #276
      010029D9H   LINE      CODE     ---       #277
      010029FDH   LINE      CODE     ---       #278
      01002A11H   LINE      CODE     ---       #280
      01002A1AH   LINE      CODE     ---       #281
      01002A1AH   LINE      CODE     ---       #282
      01002A1CH   LINE      CODE     ---       #283
      01002A1CH   LINE      CODE     ---       #284
      01002A22H   LINE      CODE     ---       #285
      01002A22H   LINE      CODE     ---       #286
      01002A22H   LINE      CODE     ---       #288
      01002A25H   LINE      CODE     ---       #289
      01002A25H   LINE      CODE     ---       #290
LX51 LINKER/LOCATER V4.41                                                             11/18/2015  10:20:10  PAGE 112


      01002A27H   LINE      CODE     ---       #291
      01002A34H   LINE      CODE     ---       #292
      01002A34H   LINE      CODE     ---       #293
      01002A41H   LINE      CODE     ---       #294
      01002A4CH   LINE      CODE     ---       #295
      01002A4EH   LINE      CODE     ---       #296
      01002A50H   LINE      CODE     ---       #297
      01002A55H   LINE      CODE     ---       #298
      01002A55H   LINE      CODE     ---       #299
      ---         BLOCKEND  ---      ---       LVL=0

      010028E2H   BLOCK     CODE     ---       LVL=0
      010028E2H   LINE      CODE     ---       #302
      010028FFH   LINE      CODE     ---       #304
      01002904H   LINE      CODE     ---       #305
      01002904H   LINE      CODE     ---       #306
      01002907H   LINE      CODE     ---       #307
      0100290DH   LINE      CODE     ---       #308
      0100290DH   LINE      CODE     ---       #309
      01002912H   LINE      CODE     ---       #310
      01002936H   LINE      CODE     ---       #311
      0100294AH   LINE      CODE     ---       #313
      01002953H   LINE      CODE     ---       #314
      01002953H   LINE      CODE     ---       #315
      01002955H   LINE      CODE     ---       #316
      01002955H   LINE      CODE     ---       #317
      0100295BH   LINE      CODE     ---       #318
      0100295BH   LINE      CODE     ---       #319
      0100295BH   LINE      CODE     ---       #321
      01002960H   LINE      CODE     ---       #322
      01002960H   LINE      CODE     ---       #323
      01002963H   LINE      CODE     ---       #324
      01002970H   LINE      CODE     ---       #325
      01002970H   LINE      CODE     ---       #326
      0100297DH   LINE      CODE     ---       #327
      0100298AH   LINE      CODE     ---       #328
      0100298CH   LINE      CODE     ---       #329
      01002991H   LINE      CODE     ---       #330
      01002991H   LINE      CODE     ---       #332
      ---         BLOCKEND  ---      ---       LVL=0

      ---         MODULE    ---      ---       PCA
      0200054AH   PUBLIC    XDATA    WORD      PWM2_low
      02000548H   PUBLIC    XDATA    WORD      PWM1_low
      02000546H   PUBLIC    XDATA    WORD      PWM0_low
      02000544H   PUBLIC    XDATA    WORD      PCA_Timer2
      02000542H   PUBLIC    XDATA    WORD      CCAP2_tmp
      02000540H   PUBLIC    XDATA    WORD      PCA_Timer1
      0200053EH   PUBLIC    XDATA    WORD      CCAP1_tmp
      0200053CH   PUBLIC    XDATA    WORD      PCA_Timer0
      0200053AH   PUBLIC    XDATA    WORD      CCAP0_tmp
      02000539H   PUBLIC    XDATA    BYTE      PCA2_mode
      02000538H   PUBLIC    XDATA    BYTE      PCA1_mode
      02000537H   PUBLIC    XDATA    BYTE      PCA0_mode
      00000020H.2 PUBLIC    BIT      BIT       B_Capture2
      00000020H.1 PUBLIC    BIT      BIT       B_Capture1
      00000020H.0 PUBLIC    BIT      BIT       B_Capture0
      01002DDFH   PUBLIC    CODE     ---       PCA_Handler
      010018F0H   PUBLIC    CODE     ---       _PCA_Init
      01002BDBH   PUBLIC    CODE     ---       _PWMn_Update
      00000080H   SFRSYM    DATA     BYTE      P0
      00000081H   SFRSYM    DATA     BYTE      SP
      00000082H   SFRSYM    DATA     BYTE      DPL
      00000083H   SFRSYM    DATA     BYTE      DPH
      00000084H   SFRSYM    DATA     BYTE      S4CON
LX51 LINKER/LOCATER V4.41                                                             11/18/2015  10:20:10  PAGE 113


      00000085H   SFRSYM    DATA     BYTE      S4BUF
      00000087H   SFRSYM    DATA     BYTE      PCON
      00000088H   SFRSYM    DATA     BYTE      TCON
      00000089H   SFRSYM    DATA     BYTE      TMOD
      0000008AH   SFRSYM    DATA     BYTE      TL0
      0000008BH   SFRSYM    DATA     BYTE      TL1
      0000008CH   SFRSYM    DATA     BYTE      TH0
      0000008DH   SFRSYM    DATA     BYTE      TH1
      0000008EH   SFRSYM    DATA     BYTE      AUXR
      0000008FH   SFRSYM    DATA     BYTE      WAKE_CLKO
      0000008FH   SFRSYM    DATA     BYTE      INT_CLKO
      0000008FH   SFRSYM    DATA     BYTE      AUXR2
      0000008AH   SFRSYM    DATA     BYTE      RL_TL0
      0000008BH   SFRSYM    DATA     BYTE      RL_TL1
      0000008CH   SFRSYM    DATA     BYTE      RL_TH0
      0000008DH   SFRSYM    DATA     BYTE      RL_TH1
      00000090H   SFRSYM    DATA     BYTE      P1
      00000091H   SFRSYM    DATA     BYTE      P1M1
      00000092H   SFRSYM    DATA     BYTE      P1M0
      00000093H   SFRSYM    DATA     BYTE      P0M1
      00000094H   SFRSYM    DATA     BYTE      P0M0
      00000095H   SFRSYM    DATA     BYTE      P2M1
      00000096H   SFRSYM    DATA     BYTE      P2M0
      00000097H   SFRSYM    DATA     BYTE      CLK_DIV
      00000097H   SFRSYM    DATA     BYTE      PCON2
      00000098H   SFRSYM    DATA     BYTE      SCON
      00000099H   SFRSYM    DATA     BYTE      SBUF
      0000009AH   SFRSYM    DATA     BYTE      S2CON
      0000009BH   SFRSYM    DATA     BYTE      S2BUF
      0000009DH   SFRSYM    DATA     BYTE      P1ASF
      000000A0H   SFRSYM    DATA     BYTE      P2
      000000A1H   SFRSYM    DATA     BYTE      BUS_SPEED
      000000A2H   SFRSYM    DATA     BYTE      AUXR1
      000000A2H   SFRSYM    DATA     BYTE      P_SW1
      000000A8H   SFRSYM    DATA     BYTE      IE
      000000A9H   SFRSYM    DATA     BYTE      SADDR
      000000AAH   SFRSYM    DATA     BYTE      WKTCL
      000000ABH   SFRSYM    DATA     BYTE      WKTCH
      000000ACH   SFRSYM    DATA     BYTE      S3CON
      000000ADH   SFRSYM    DATA     BYTE      S3BUF
      000000AFH   SFRSYM    DATA     BYTE      IE2
      000000B0H   SFRSYM    DATA     BYTE      P3
      000000B1H   SFRSYM    DATA     BYTE      P3M1
      000000B2H   SFRSYM    DATA     BYTE      P3M0
      000000B3H   SFRSYM    DATA     BYTE      P4M1
      000000B4H   SFRSYM    DATA     BYTE      P4M0
      000000B5H   SFRSYM    DATA     BYTE      IP2
      000000B6H   SFRSYM    DATA     BYTE      IPH2
      000000B7H   SFRSYM    DATA     BYTE      IPH
      000000B8H   SFRSYM    DATA     BYTE      IP
      000000B9H   SFRSYM    DATA     BYTE      SADEN
      000000BAH   SFRSYM    DATA     BYTE      P_SW2
      000000BCH   SFRSYM    DATA     BYTE      ADC_CONTR
      000000BDH   SFRSYM    DATA     BYTE      ADC_RES
      000000BEH   SFRSYM    DATA     BYTE      ADC_RESL
      000000C0H   SFRSYM    DATA     BYTE      P4
      000000C1H   SFRSYM    DATA     BYTE      WDT_CONTR
      000000C2H   SFRSYM    DATA     BYTE      IAP_DATA
      000000C3H   SFRSYM    DATA     BYTE      IAP_ADDRH
      000000C4H   SFRSYM    DATA     BYTE      IAP_ADDRL
      000000C5H   SFRSYM    DATA     BYTE      IAP_CMD
      000000C6H   SFRSYM    DATA     BYTE      IAP_TRIG
      000000C7H   SFRSYM    DATA     BYTE      IAP_CONTR
      000000C2H   SFRSYM    DATA     BYTE      ISP_DATA
      000000C3H   SFRSYM    DATA     BYTE      ISP_ADDRH
LX51 LINKER/LOCATER V4.41                                                             11/18/2015  10:20:10  PAGE 114


      000000C4H   SFRSYM    DATA     BYTE      ISP_ADDRL
      000000C5H   SFRSYM    DATA     BYTE      ISP_CMD
      000000C6H   SFRSYM    DATA     BYTE      ISP_TRIG
      000000C7H   SFRSYM    DATA     BYTE      ISP_CONTR
      000000C8H   SFRSYM    DATA     BYTE      P5
      000000C9H   SFRSYM    DATA     BYTE      P5M1
      000000CAH   SFRSYM    DATA     BYTE      P5M0
      000000CBH   SFRSYM    DATA     BYTE      P6M1
      000000CCH   SFRSYM    DATA     BYTE      P6M0
      000000CDH   SFRSYM    DATA     BYTE      SPSTAT
      000000CEH   SFRSYM    DATA     BYTE      SPCTL
      000000CFH   SFRSYM    DATA     BYTE      SPDAT
      000000D0H   SFRSYM    DATA     BYTE      PSW
      000000D1H   SFRSYM    DATA     BYTE      T4T3M
      000000D2H   SFRSYM    DATA     BYTE      T4H
      000000D3H   SFRSYM    DATA     BYTE      T4L
      000000D4H   SFRSYM    DATA     BYTE      T3H
      000000D5H   SFRSYM    DATA     BYTE      T3L
      000000D6H   SFRSYM    DATA     BYTE      T2H
      000000D7H   SFRSYM    DATA     BYTE      T2L
      000000D2H   SFRSYM    DATA     BYTE      TH4
      000000D3H   SFRSYM    DATA     BYTE      TL4
      000000D4H   SFRSYM    DATA     BYTE      TH3
      000000D5H   SFRSYM    DATA     BYTE      TL3
      000000D6H   SFRSYM    DATA     BYTE      TH2
      000000D7H   SFRSYM    DATA     BYTE      TL2
      000000D2H   SFRSYM    DATA     BYTE      RL_T4H
      000000D3H   SFRSYM    DATA     BYTE      RL_T4L
      000000D4H   SFRSYM    DATA     BYTE      RL_T3H
      000000D5H   SFRSYM    DATA     BYTE      RL_T3L
      000000D6H   SFRSYM    DATA     BYTE      RL_T2H
      000000D7H   SFRSYM    DATA     BYTE      RL_T2L
      000000D8H   SFRSYM    DATA     BYTE      CCON
      000000D9H   SFRSYM    DATA     BYTE      CMOD
      000000DAH   SFRSYM    DATA     BYTE      CCAPM0
      000000DBH   SFRSYM    DATA     BYTE      CCAPM1
      000000DCH   SFRSYM    DATA     BYTE      CCAPM2
      000000E0H   SFRSYM    DATA     BYTE      ACC
      000000E1H   SFRSYM    DATA     BYTE      P7M1
      000000E2H   SFRSYM    DATA     BYTE      P7M0
      000000E8H   SFRSYM    DATA     BYTE      P6
      000000E9H   SFRSYM    DATA     BYTE      CL
      000000EAH   SFRSYM    DATA     BYTE      CCAP0L
      000000EBH   SFRSYM    DATA     BYTE      CCAP1L
      000000ECH   SFRSYM    DATA     BYTE      CCAP2L
      000000F0H   SFRSYM    DATA     BYTE      B
      000000F2H   SFRSYM    DATA     BYTE      PCA_PWM0
      000000F3H   SFRSYM    DATA     BYTE      PCA_PWM1
      000000F4H   SFRSYM    DATA     BYTE      PCA_PWM2
      000000F8H   SFRSYM    DATA     BYTE      P7
      000000F9H   SFRSYM    DATA     BYTE      CH
      000000FAH   SFRSYM    DATA     BYTE      CCAP0H
      000000FBH   SFRSYM    DATA     BYTE      CCAP1H
      000000FCH   SFRSYM    DATA     BYTE      CCAP2H
      000000D0H.7 SFRSYM    DATA     BIT       CY
      000000D0H.6 SFRSYM    DATA     BIT       AC
      000000D0H.5 SFRSYM    DATA     BIT       F0
      000000D0H.4 SFRSYM    DATA     BIT       RS1
      000000D0H.3 SFRSYM    DATA     BIT       RS0
      000000D0H.2 SFRSYM    DATA     BIT       OV
      000000D0H.1 SFRSYM    DATA     BIT       F1
      000000D0H   SFRSYM    DATA     BIT       P
      00000088H.7 SFRSYM    DATA     BIT       TF1
      00000088H.6 SFRSYM    DATA     BIT       TR1
      00000088H.5 SFRSYM    DATA     BIT       TF0
LX51 LINKER/LOCATER V4.41                                                             11/18/2015  10:20:10  PAGE 115


      00000088H.4 SFRSYM    DATA     BIT       TR0
      00000088H.3 SFRSYM    DATA     BIT       IE1
      00000088H.2 SFRSYM    DATA     BIT       IT1
      00000088H.1 SFRSYM    DATA     BIT       IE0
      00000088H   SFRSYM    DATA     BIT       IT0
      00000080H   SFRSYM    DATA     BIT       P00
      00000080H.1 SFRSYM    DATA     BIT       P01
      00000080H.2 SFRSYM    DATA     BIT       P02
      00000080H.3 SFRSYM    DATA     BIT       P03
      00000080H.4 SFRSYM    DATA     BIT       P04
      00000080H.5 SFRSYM    DATA     BIT       P05
      00000080H.6 SFRSYM    DATA     BIT       P06
      00000080H.7 SFRSYM    DATA     BIT       P07
      00000090H   SFRSYM    DATA     BIT       P10
      00000090H.1 SFRSYM    DATA     BIT       P11
      00000090H.2 SFRSYM    DATA     BIT       P12
      00000090H.3 SFRSYM    DATA     BIT       P13
      00000090H.4 SFRSYM    DATA     BIT       P14
      00000090H.5 SFRSYM    DATA     BIT       P15
      00000090H.6 SFRSYM    DATA     BIT       P16
      00000090H.7 SFRSYM    DATA     BIT       P17
      00000090H   SFRSYM    DATA     BIT       RXD2
      00000090H.1 SFRSYM    DATA     BIT       TXD2
      00000090H   SFRSYM    DATA     BIT       CCP1
      00000090H.1 SFRSYM    DATA     BIT       CCP0
      00000090H.2 SFRSYM    DATA     BIT       SPI_SS
      00000090H.3 SFRSYM    DATA     BIT       SPI_MOSI
      00000090H.4 SFRSYM    DATA     BIT       SPI_MISO
      00000090H.5 SFRSYM    DATA     BIT       SPI_SCLK
      000000A0H.4 SFRSYM    DATA     BIT       SPI_SS_2
      000000A0H.3 SFRSYM    DATA     BIT       SPI_MOSI_2
      000000A0H.2 SFRSYM    DATA     BIT       SPI_MISO_2
      000000A0H.1 SFRSYM    DATA     BIT       SPI_SCLK_2
      000000C8H.4 SFRSYM    DATA     BIT       SPI_SS_3
      000000C0H   SFRSYM    DATA     BIT       SPI_MOSI_3
      000000C0H.1 SFRSYM    DATA     BIT       SPI_MISO_3
      000000C0H.3 SFRSYM    DATA     BIT       SPI_SCLK_3
      000000A0H   SFRSYM    DATA     BIT       P20
      000000A0H.1 SFRSYM    DATA     BIT       P21
      000000A0H.2 SFRSYM    DATA     BIT       P22
      000000A0H.3 SFRSYM    DATA     BIT       P23
      000000A0H.4 SFRSYM    DATA     BIT       P24
      000000A0H.5 SFRSYM    DATA     BIT       P25
      000000A0H.6 SFRSYM    DATA     BIT       P26
      000000A0H.7 SFRSYM    DATA     BIT       P27
      000000B0H   SFRSYM    DATA     BIT       P30
      000000B0H.1 SFRSYM    DATA     BIT       P31
      000000B0H.2 SFRSYM    DATA     BIT       P32
      000000B0H.3 SFRSYM    DATA     BIT       P33
      000000B0H.4 SFRSYM    DATA     BIT       P34
      000000B0H.5 SFRSYM    DATA     BIT       P35
      000000B0H.6 SFRSYM    DATA     BIT       P36
      000000B0H.7 SFRSYM    DATA     BIT       P37
      000000B0H   SFRSYM    DATA     BIT       RXD
      000000B0H.1 SFRSYM    DATA     BIT       TXD
      000000B0H.2 SFRSYM    DATA     BIT       INT0
      000000B0H.3 SFRSYM    DATA     BIT       INT1
      000000B0H.4 SFRSYM    DATA     BIT       T0
      000000B0H.5 SFRSYM    DATA     BIT       T1
      000000B0H.6 SFRSYM    DATA     BIT       WR
      000000B0H.7 SFRSYM    DATA     BIT       RD
      000000B0H.7 SFRSYM    DATA     BIT       CCP2
      000000B0H.5 SFRSYM    DATA     BIT       CLKOUT0
      000000B0H.4 SFRSYM    DATA     BIT       CLKOUT1
      000000C0H   SFRSYM    DATA     BIT       P40
LX51 LINKER/LOCATER V4.41                                                             11/18/2015  10:20:10  PAGE 116


      000000C0H.1 SFRSYM    DATA     BIT       P41
      000000C0H.2 SFRSYM    DATA     BIT       P42
      000000C0H.3 SFRSYM    DATA     BIT       P43
      000000C0H.4 SFRSYM    DATA     BIT       P44
      000000C0H.5 SFRSYM    DATA     BIT       P45
      000000C0H.6 SFRSYM    DATA     BIT       P46
      000000C0H.7 SFRSYM    DATA     BIT       P47
      000000C8H   SFRSYM    DATA     BIT       P50
      000000C8H.1 SFRSYM    DATA     BIT       P51
      000000C8H.2 SFRSYM    DATA     BIT       P52
      000000C8H.3 SFRSYM    DATA     BIT       P53
      000000C8H.4 SFRSYM    DATA     BIT       P54
      000000C8H.5 SFRSYM    DATA     BIT       P55
      000000C8H.6 SFRSYM    DATA     BIT       P56
      000000C8H.7 SFRSYM    DATA     BIT       P57
      00000098H.7 SFRSYM    DATA     BIT       SM0
      00000098H.6 SFRSYM    DATA     BIT       SM1
      00000098H.5 SFRSYM    DATA     BIT       SM2
      00000098H.4 SFRSYM    DATA     BIT       REN
      00000098H.3 SFRSYM    DATA     BIT       TB8
      00000098H.2 SFRSYM    DATA     BIT       RB8
      00000098H.1 SFRSYM    DATA     BIT       TI
      00000098H   SFRSYM    DATA     BIT       RI
      000000A8H.7 SFRSYM    DATA     BIT       EA
      000000A8H.6 SFRSYM    DATA     BIT       ELVD
      000000A8H.5 SFRSYM    DATA     BIT       EADC
      000000A8H.4 SFRSYM    DATA     BIT       ES
      000000A8H.3 SFRSYM    DATA     BIT       ET1
      000000A8H.2 SFRSYM    DATA     BIT       EX1
      000000A8H.1 SFRSYM    DATA     BIT       ET0
      000000A8H   SFRSYM    DATA     BIT       EX0
      000000E0H   SFRSYM    DATA     BIT       ACC0
      000000E0H.1 SFRSYM    DATA     BIT       ACC1
      000000E0H.2 SFRSYM    DATA     BIT       ACC2
      000000E0H.3 SFRSYM    DATA     BIT       ACC3
      000000E0H.4 SFRSYM    DATA     BIT       ACC4
      000000E0H.5 SFRSYM    DATA     BIT       ACC5
      000000E0H.6 SFRSYM    DATA     BIT       ACC6
      000000E0H.7 SFRSYM    DATA     BIT       ACC7
      000000F0H   SFRSYM    DATA     BIT       B0
      000000F0H.1 SFRSYM    DATA     BIT       B1
      000000F0H.2 SFRSYM    DATA     BIT       B2
      000000F0H.3 SFRSYM    DATA     BIT       B3
      000000F0H.4 SFRSYM    DATA     BIT       B4
      000000F0H.5 SFRSYM    DATA     BIT       B5
      000000F0H.6 SFRSYM    DATA     BIT       B6
      000000F0H.7 SFRSYM    DATA     BIT       B7
      000000B8H.7 SFRSYM    DATA     BIT       PPCA
      000000B8H.6 SFRSYM    DATA     BIT       PLVD
      000000B8H.5 SFRSYM    DATA     BIT       PADC
      000000B8H.4 SFRSYM    DATA     BIT       PS
      000000B8H.3 SFRSYM    DATA     BIT       PT1
      000000B8H.2 SFRSYM    DATA     BIT       PX1
      000000B8H.1 SFRSYM    DATA     BIT       PT0
      000000B8H   SFRSYM    DATA     BIT       PX0
      000000D8H   SFRSYM    DATA     BIT       CCF0
      000000D8H.1 SFRSYM    DATA     BIT       CCF1
      000000D8H.2 SFRSYM    DATA     BIT       CCF2
      000000D8H.6 SFRSYM    DATA     BIT       CR
      000000D8H.7 SFRSYM    DATA     BIT       CF

      01002BDBH   BLOCK     CODE     ---       LVL=0
      00000007H   SYMBOL    DATA     BYTE      PCA_id
      00000004H   SYMBOL    DATA     WORD      high
      01002BDBH   LINE      CODE     ---       #29
LX51 LINKER/LOCATER V4.41                                                             11/18/2015  10:20:10  PAGE 117


      01002BDBH   LINE      CODE     ---       #30
      01002BDBH   LINE      CODE     ---       #31
      01002BDEH   LINE      CODE     ---       #32
      01002BDEH   LINE      CODE     ---       #33
      01002BEBH   LINE      CODE     ---       #34
      01002BF8H   LINE      CODE     ---       #35
      01002BFAH   LINE      CODE     ---       #36
      01002C02H   LINE      CODE     ---       #37
      01002C10H   LINE      CODE     ---       #38
      01002C10H   LINE      CODE     ---       #39
      01002C12H   LINE      CODE     ---       #40
      01002C17H   LINE      CODE     ---       #41
      01002C17H   LINE      CODE     ---       #42
      01002C24H   LINE      CODE     ---       #43
      01002C31H   LINE      CODE     ---       #44
      01002C33H   LINE      CODE     ---       #45
      01002C3BH   LINE      CODE     ---       #46
      01002C49H   LINE      CODE     ---       #47
      01002C49H   LINE      CODE     ---       #48
      01002C4BH   LINE      CODE     ---       #49
      01002C50H   LINE      CODE     ---       #50
      01002C50H   LINE      CODE     ---       #51
      01002C5DH   LINE      CODE     ---       #52
      01002C6AH   LINE      CODE     ---       #53
      01002C6CH   LINE      CODE     ---       #54
      01002C74H   LINE      CODE     ---       #55
      01002C86H   LINE      CODE     ---       #56
      01002C88H   LINE      CODE     ---       #57
      01002C88H   LINE      CODE     ---       #58
      ---         BLOCKEND  ---      ---       LVL=0

      010018F0H   BLOCK     CODE     ---       LVL=0
      00000005H   SYMBOL    DATA     BYTE      PCA_id
      0200022BH   SYMBOL    XDATA    ---       PCAx
      010018F0H   LINE      CODE     ---       #87
      010018FDH   LINE      CODE     ---       #88
      010018FDH   LINE      CODE     ---       #89
      01001906H   LINE      CODE     ---       #91
      0100190BH   LINE      CODE     ---       #92
      0100190BH   LINE      CODE     ---       #93
      0100190DH   LINE      CODE     ---       #94
      0100190FH   LINE      CODE     ---       #95
      01001911H   LINE      CODE     ---       #96
      01001927H   LINE      CODE     ---       #97
      01001935H   LINE      CODE     ---       #98
      01001945H   LINE      CODE     ---       #99
      01001952H   LINE      CODE     ---       #100
      01001954H   LINE      CODE     ---       #101
      01001957H   LINE      CODE     ---       #103
      01001957H   LINE      CODE     ---       #105
      0100196FH   LINE      CODE     ---       #106
      01001994H   LINE      CODE     ---       #108
      01001997H   LINE      CODE     ---       #109
      01001997H   LINE      CODE     ---       #110
      010019B3H   LINE      CODE     ---       #111
      010019C1H   LINE      CODE     ---       #113
      010019D2H   LINE      CODE     ---       #114
      010019D4H   LINE      CODE     ---       #115
      010019D9H   LINE      CODE     ---       #116
      010019E1H   LINE      CODE     ---       #117
      010019E3H   LINE      CODE     ---       #118
      010019E6H   LINE      CODE     ---       #119
      010019E6H   LINE      CODE     ---       #120
      010019EBH   LINE      CODE     ---       #121
      010019EBH   LINE      CODE     ---       #122
LX51 LINKER/LOCATER V4.41                                                             11/18/2015  10:20:10  PAGE 118


      01001A07H   LINE      CODE     ---       #123
      01001A15H   LINE      CODE     ---       #125
      01001A26H   LINE      CODE     ---       #126
      01001A28H   LINE      CODE     ---       #127
      01001A2DH   LINE      CODE     ---       #128
      01001A35H   LINE      CODE     ---       #129
      01001A37H   LINE      CODE     ---       #130
      01001A3AH   LINE      CODE     ---       #131
      01001A3AH   LINE      CODE     ---       #132
      01001A3FH   LINE      CODE     ---       #133
      01001A3FH   LINE      CODE     ---       #134
      01001A5BH   LINE      CODE     ---       #135
      01001A69H   LINE      CODE     ---       #137
      01001A7AH   LINE      CODE     ---       #138
      01001A7CH   LINE      CODE     ---       #139
      01001A81H   LINE      CODE     ---       #140
      01001A89H   LINE      CODE     ---       #141
      01001A8BH   LINE      CODE     ---       #142
      01001A8EH   LINE      CODE     ---       #143
      01001A8EH   LINE      CODE     ---       #144
      ---         BLOCKEND  ---      ---       LVL=0

      01002DDFH   BLOCK     CODE     ---       LVL=0
      01002DDFH   LINE      CODE     ---       #154
      01002DEEH   LINE      CODE     ---       #156
      01002DF1H   LINE      CODE     ---       #157
      01002DF1H   LINE      CODE     ---       #158
      01002DF3H   LINE      CODE     ---       #159
      01002DFBH   LINE      CODE     ---       #160
      01002E0FH   LINE      CODE     ---       #161
      01002E18H   LINE      CODE     ---       #162
      01002E1BH   LINE      CODE     ---       #163
      01002E1BH   LINE      CODE     ---       #165
      01002E1EH   LINE      CODE     ---       #166
      01002E1EH   LINE      CODE     ---       #167
      01002E20H   LINE      CODE     ---       #168
      01002E28H   LINE      CODE     ---       #169
      01002E3CH   LINE      CODE     ---       #170
      01002E45H   LINE      CODE     ---       #171
      01002E48H   LINE      CODE     ---       #172
      01002E48H   LINE      CODE     ---       #174
      01002E4BH   LINE      CODE     ---       #175
      01002E4BH   LINE      CODE     ---       #176
      01002E4DH   LINE      CODE     ---       #177
      01002E55H   LINE      CODE     ---       #178
      01002E69H   LINE      CODE     ---       #179
      01002E72H   LINE      CODE     ---       #180
      01002E75H   LINE      CODE     ---       #181
      01002E75H   LINE      CODE     ---       #188
      ---         BLOCKEND  ---      ---       LVL=0

      ---         MODULE    ---      ---       ?C?FPMUL
      01000066H   PUBLIC    CODE     ---       ?C?FPMUL

      ---         MODULE    ---      ---       ?C?FPDIV
      0100016FH   PUBLIC    CODE     ---       ?C?FPDIV

      ---         MODULE    ---      ---       ?C?FPCMP
      0100020EH   PUBLIC    CODE     ---       ?C?FPCMP
      0100020CH   PUBLIC    CODE     ---       ?C?FPCMP3

      ---         MODULE    ---      ---       ?C?FCAST
      01000283H   PUBLIC    CODE     ---       ?C?FCASTC
      0100027EH   PUBLIC    CODE     ---       ?C?FCASTI
      01000279H   PUBLIC    CODE     ---       ?C?FCASTL
LX51 LINKER/LOCATER V4.41                                                             11/18/2015  10:20:10  PAGE 119



      ---         MODULE    ---      ---       ?C?CASTF
      010002B7H   PUBLIC    CODE     ---       ?C?CASTF

      ---         MODULE    ---      ---       ?C?FPGETOPN
      010002EEH   PUBLIC    CODE     ---       ?C?FPGETOPN2
      01000323H   PUBLIC    CODE     ---       ?C?FPNANRESULT
      0100032DH   PUBLIC    CODE     ---       ?C?FPOVERFLOW
      01000305H   PUBLIC    CODE     ---       ?C?FPRESULT
      01000319H   PUBLIC    CODE     ---       ?C?FPRESULT2
      0100032AH   PUBLIC    CODE     ---       ?C?FPUNDERFLOW

      ---         MODULE    ---      ---       ?C_STARTUP
      01000000H   PUBLIC    CODE     ---       ?C_STARTUP

      ---         MODULE    ---      ---       ?C?COPY
      01000408H   PUBLIC    CODE     ---       ?C?COPY

      ---         MODULE    ---      ---       ?C?CLDPTR
      0100042EH   PUBLIC    CODE     ---       ?C?CLDPTR

      ---         MODULE    ---      ---       ?C?CLDOPTR
      01000447H   PUBLIC    CODE     ---       ?C?CLDOPTR

      ---         MODULE    ---      ---       ?C?CSTPTR
      01000474H   PUBLIC    CODE     ---       ?C?CSTPTR

      ---         MODULE    ---      ---       ?C?CSTOPTR
      01000486H   PUBLIC    CODE     ---       ?C?CSTOPTR

      ---         MODULE    ---      ---       ?C?UIDIV
      010004A8H   PUBLIC    CODE     ---       ?C?UIDIV

      ---         MODULE    ---      ---       ?C?IILDX
      010004FDH   PUBLIC    CODE     ---       ?C?IILDX

      ---         MODULE    ---      ---       ?C?ILDIX
      01000513H   PUBLIC    CODE     ---       ?C?ILDIX

      ---         MODULE    ---      ---       ?C?ILDOPTR
      01000529H   PUBLIC    CODE     ---       ?C?ILDOPTR

      ---         MODULE    ---      ---       ?C?ISTOPTR
      01000561H   PUBLIC    CODE     ---       ?C?ISTOPTR

      ---         MODULE    ---      ---       ?C?LMUL
      0100058EH   PUBLIC    CODE     ---       ?C?LMUL

      ---         MODULE    ---      ---       ?C?ULDIV
      01000619H   PUBLIC    CODE     ---       ?C?ULDIV

      ---         MODULE    ---      ---       ?C?LNEG
      010006ABH   PUBLIC    CODE     ---       ?C?LNEG

      ---         MODULE    ---      ---       ?C?ULCMP
      010006B9H   PUBLIC    CODE     ---       ?C?ULCMP

      ---         MODULE    ---      ---       ?C?ULSHR
      010006CAH   PUBLIC    CODE     ---       ?C?ULSHR

      ---         MODULE    ---      ---       ?C?LSHL
      010006DDH   PUBLIC    CODE     ---       ?C?LSHL

      ---         MODULE    ---      ---       ?C?LLDOPTR0
      010006F0H   PUBLIC    CODE     ---       ?C?LLDOPTR0
LX51 LINKER/LOCATER V4.41                                                             11/18/2015  10:20:10  PAGE 120



      ---         MODULE    ---      ---       ?C?LLDIXDATA
      01000729H   PUBLIC    CODE     ---       ?C?LLDIXDATA
      01000720H   PUBLIC    CODE     ---       ?C?LLDIXDATA1
      01000722H   PUBLIC    CODE     ---       ?C?LLDIXDATA8

      ---         MODULE    ---      ---       ?C?LSTXDATA
      01000755H   PUBLIC    CODE     ---       ?C?LSTXDATA

      ---         MODULE    ---      ---       ?C?LSTKXDATA
      01000761H   PUBLIC    CODE     ---       ?C?LSTKXDATA

      ---         MODULE    ---      ---       ?C?ICASE
      01000792H   PUBLIC    CODE     ---       ?C?ICASE

      ---         MODULE    ---      ---       ?C?MEMSET
      010007BFH   PUBLIC    CODE     ---       ?C?MEMSET

      ---         MODULE    ---      ---       ?C_INIT
      01002FEEH   PUBLIC    CODE     ---       ?C_START

      ---         MODULE    ---      ---       ?C?LLDIDATA0
      010007EBH   PUBLIC    CODE     ---       ?C?LLDIDATA0

      ---         MODULE    ---      ---       ?C?LLDXDATA0
      010007F8H   PUBLIC    CODE     ---       ?C?LLDXDATA0

      ---         MODULE    ---      ---       ?C?LLDPDATA0
      01000804H   PUBLIC    CODE     ---       ?C?LLDPDATA0

      ---         MODULE    ---      ---       ?C?LLDCODE0
      01000811H   PUBLIC    CODE     ---       ?C?LLDCODE0



*** WARNING L16: UNCALLED FUNCTION, IGNORED FOR OVERLAY PROCESS
    NAME:    _SPI_SEND_BYTE1/SPI

*** WARNING L16: UNCALLED FUNCTION, IGNORED FOR OVERLAY PROCESS
    NAME:    _QUEUE_INIT/COM

*** WARNING L16: UNCALLED FUNCTION, IGNORED FOR OVERLAY PROCESS
    NAME:    _QUEUE_IS_EMPTY/COM

*** WARNING L16: UNCALLED FUNCTION, IGNORED FOR OVERLAY PROCESS
    NAME:    _TO_BIN2/COM

*** WARNING L16: UNCALLED FUNCTION, IGNORED FOR OVERLAY PROCESS
    NAME:    SOFT_RESET/COM

*** WARNING L16: UNCALLED FUNCTION, IGNORED FOR OVERLAY PROCESS
    NAME:    _RN8209_WRITE_DATA/RN8209D

*** WARNING L16: UNCALLED FUNCTION, IGNORED FOR OVERLAY PROCESS
    NAME:    RN8209_GET_CURR1/RN8209D

*** WARNING L16: UNCALLED FUNCTION, IGNORED FOR OVERLAY PROCESS
    NAME:    TIME_INIT/TIMERHL

*** WARNING L16: UNCALLED FUNCTION, IGNORED FOR OVERLAY PROCESS
    NAME:    _GET_ADC_VAL/ADCHL

*** WARNING L16: UNCALLED FUNCTION, IGNORED FOR OVERLAY PROCESS
    NAME:    _FRIST_LAMP_ON_HANDER/ADCHL

LX51 LINKER/LOCATER V4.41                                                             11/18/2015  10:20:10  PAGE 121


*** WARNING L16: UNCALLED FUNCTION, IGNORED FOR OVERLAY PROCESS
    NAME:    _WRITE_LAMP_WORK_CURR_BASE/ADCHL

*** WARNING L16: UNCALLED FUNCTION, IGNORED FOR OVERLAY PROCESS
    NAME:    _UNUSUAL_CURR/ADCHL

*** WARNING L16: UNCALLED FUNCTION, IGNORED FOR OVERLAY PROCESS
    NAME:    _GET_LAMP_SWITCH_ALARM_STATUS/ADCHL

*** WARNING L16: UNCALLED FUNCTION, IGNORED FOR OVERLAY PROCESS
    NAME:    GET_SWITCH_1_VAL/CODE_SWITCH

*** WARNING L16: UNCALLED FUNCTION, IGNORED FOR OVERLAY PROCESS
    NAME:    _EE1_COPY_TO_EE2/EEPROMHL

*** WARNING L16: UNCALLED FUNCTION, IGNORED FOR OVERLAY PROCESS
    NAME:    ALL_IRQ_DISABLE/BSP

*** WARNING L16: UNCALLED FUNCTION, IGNORED FOR OVERLAY PROCESS
    NAME:    _EEPROM_SECTORERASE/EEPROM

*** WARNING L16: UNCALLED FUNCTION, IGNORED FOR OVERLAY PROCESS
    NAME:    _TIMER_INILIZE/TIMER

*** WARNING L16: UNCALLED FUNCTION, IGNORED FOR OVERLAY PROCESS
    NAME:    _PRINTSTRING1/USART

*** WARNING L16: UNCALLED FUNCTION, IGNORED FOR OVERLAY PROCESS
    NAME:    _PRINTSTRING2/USART

*** WARNING L16: UNCALLED FUNCTION, IGNORED FOR OVERLAY PROCESS
    NAME:    _UART1_TX_DATA/USART

*** WARNING L16: UNCALLED FUNCTION, IGNORED FOR OVERLAY PROCESS
    NAME:    _UART1_RX_DATA/USART

*** WARNING L25: DATA TYPES DIFFERENT
    SYMBOL:  get_switch_2_val
    MODULE:  .\Obj\adchl.obj (ADCHL)
   DEFINED:  .\Obj\code_switch.obj (CODE_SWITCH)

Program Size: data=16.3 xdata=1463 const=318 code=15209
LX51 RUN COMPLETE.  23 WARNING(S),  0 ERROR(S)
